; Listing generated by Microsoft (R) Optimizing Compiler Version 19.39.33520.0 

include listing.inc

INCLUDELIB MSVCRTD
INCLUDELIB OLDNAMES

msvcjmc	SEGMENT
__47DDD456_Laba_1@pch DB 01H
__587FDEF0_dayOfYear@cpp DB 01H
__66053627_stdafx@h DB 01H
__6610A6D2_stdafx@cpp DB 01H
msvcjmc	ENDS
PUBLIC	?__empty_global_delete@@YAXPEAX@Z		; __empty_global_delete
PUBLIC	?__empty_global_delete@@YAXPEAX_K@Z		; __empty_global_delete
PUBLIC	?dayOfYear@@YAHHHH@Z				; dayOfYear
PUBLIC	__JustMyCode_Default
EXTRN	_RTC_CheckStackVars:PROC
EXTRN	_RTC_InitBase:PROC
EXTRN	_RTC_Shutdown:PROC
EXTRN	__CheckForDebuggerJustMyCode:PROC
;	COMDAT pdata
pdata	SEGMENT
$pdata$?__empty_global_delete@@YAXPEAX@Z DD imagerel $LN3
	DD	imagerel $LN3+41
	DD	imagerel $unwind$?__empty_global_delete@@YAXPEAX@Z
pdata	ENDS
;	COMDAT pdata
pdata	SEGMENT
$pdata$?__empty_global_delete@@YAXPEAX_K@Z DD imagerel $LN3
	DD	imagerel $LN3+46
	DD	imagerel $unwind$?__empty_global_delete@@YAXPEAX_K@Z
pdata	ENDS
;	COMDAT pdata
pdata	SEGMENT
$pdata$?dayOfYear@@YAHHHH@Z DD imagerel $LN9
	DD	imagerel $LN9+317
	DD	imagerel $unwind$?dayOfYear@@YAHHHH@Z
pdata	ENDS
;	COMDAT rtc$TMZ
rtc$TMZ	SEGMENT
_RTC_Shutdown.rtc$TMZ DQ FLAT:_RTC_Shutdown
rtc$TMZ	ENDS
;	COMDAT rtc$IMZ
rtc$IMZ	SEGMENT
_RTC_InitBase.rtc$IMZ DQ FLAT:_RTC_InitBase
rtc$IMZ	ENDS
;	COMDAT xdata
xdata	SEGMENT
$unwind$?dayOfYear@@YAHHHH@Z DD 025053301H
	DD	0116231bH
	DD	0700f002fH
	DD	0500eH
xdata	ENDS
;	COMDAT CONST
CONST	SEGMENT
?dayOfYear@@YAHHHH@Z$rtcName$0 DB 064H			; dayOfYear
	DB	061H
	DB	079H
	DB	073H
	DB	04fH
	DB	066H
	DB	04dH
	DB	06fH
	DB	06eH
	DB	074H
	DB	068H
	DB	00H
	ORG $+4
?dayOfYear@@YAHHHH@Z$rtcVarDesc DD 048H			; dayOfYear
	DD	030H
	DQ	FLAT:?dayOfYear@@YAHHHH@Z$rtcName$0
	ORG $+48
?dayOfYear@@YAHHHH@Z$rtcFrameData DD 01H		; dayOfYear
	DD	00H
	DQ	FLAT:?dayOfYear@@YAHHHH@Z$rtcVarDesc
CONST	ENDS
;	COMDAT xdata
xdata	SEGMENT
$unwind$?__empty_global_delete@@YAXPEAX_K@Z DD 025051801H
	DD	01132318H
	DD	0700c001dH
	DD	0500bH
xdata	ENDS
;	COMDAT xdata
xdata	SEGMENT
$unwind$?__empty_global_delete@@YAXPEAX@Z DD 025051301H
	DD	010e2313H
	DD	07007001dH
	DD	05006H
xdata	ENDS
; Function compile flags: /Odt
;	COMDAT __JustMyCode_Default
_TEXT	SEGMENT
__JustMyCode_Default PROC				; COMDAT
  00000	c2 00 00	 ret	 0
__JustMyCode_Default ENDP
_TEXT	ENDS
; Function compile flags: /Odtp /RTCsu /ZI
; File E:\2 семестр\КПО\Лаба_1\calendar01\Laba_1\dayOfYear.cpp
;	COMDAT ?dayOfYear@@YAHHHH@Z
_TEXT	SEGMENT
dayNumber$ = 4
daysOfMonth$ = 40
i$4 = 116
day$ = 368
month$ = 376
year$ = 384
?dayOfYear@@YAHHHH@Z PROC				; dayOfYear, COMDAT

; 3    : int dayOfYear(int day, int month, int year) {

$LN9:
  00000	44 89 44 24 18	 mov	 DWORD PTR [rsp+24], r8d
  00005	89 54 24 10	 mov	 DWORD PTR [rsp+16], edx
  00009	89 4c 24 08	 mov	 DWORD PTR [rsp+8], ecx
  0000d	55		 push	 rbp
  0000e	57		 push	 rdi
  0000f	48 81 ec 78 01
	00 00		 sub	 rsp, 376		; 00000178H
  00016	48 8d 6c 24 20	 lea	 rbp, QWORD PTR [rsp+32]
  0001b	48 8d 7c 24 20	 lea	 rdi, QWORD PTR [rsp+32]
  00020	b9 26 00 00 00	 mov	 ecx, 38			; 00000026H
  00025	b8 cc cc cc cc	 mov	 eax, -858993460		; ccccccccH
  0002a	f3 ab		 rep stosd
  0002c	8b 8c 24 98 01
	00 00		 mov	 ecx, DWORD PTR [rsp+408]
  00033	48 8d 0d 00 00
	00 00		 lea	 rcx, OFFSET FLAT:__587FDEF0_dayOfYear@cpp
  0003a	e8 00 00 00 00	 call	 __CheckForDebuggerJustMyCode

; 4    : 	int dayNumber = day;

  0003f	8b 85 70 01 00
	00		 mov	 eax, DWORD PTR day$[rbp]
  00045	89 45 04	 mov	 DWORD PTR dayNumber$[rbp], eax

; 5    : 	int daysOfMonth[] = { 31, 28, 31, 30, 31, 30, 31, 31, 30, 31, 30, 31 };

  00048	c7 45 28 1f 00
	00 00		 mov	 DWORD PTR daysOfMonth$[rbp], 31
  0004f	c7 45 2c 1c 00
	00 00		 mov	 DWORD PTR daysOfMonth$[rbp+4], 28
  00056	c7 45 30 1f 00
	00 00		 mov	 DWORD PTR daysOfMonth$[rbp+8], 31
  0005d	c7 45 34 1e 00
	00 00		 mov	 DWORD PTR daysOfMonth$[rbp+12], 30
  00064	c7 45 38 1f 00
	00 00		 mov	 DWORD PTR daysOfMonth$[rbp+16], 31
  0006b	c7 45 3c 1e 00
	00 00		 mov	 DWORD PTR daysOfMonth$[rbp+20], 30
  00072	c7 45 40 1f 00
	00 00		 mov	 DWORD PTR daysOfMonth$[rbp+24], 31
  00079	c7 45 44 1f 00
	00 00		 mov	 DWORD PTR daysOfMonth$[rbp+28], 31
  00080	c7 45 48 1e 00
	00 00		 mov	 DWORD PTR daysOfMonth$[rbp+32], 30
  00087	c7 45 4c 1f 00
	00 00		 mov	 DWORD PTR daysOfMonth$[rbp+36], 31
  0008e	c7 45 50 1e 00
	00 00		 mov	 DWORD PTR daysOfMonth$[rbp+40], 30
  00095	c7 45 54 1f 00
	00 00		 mov	 DWORD PTR daysOfMonth$[rbp+44], 31

; 6    : 	for (int i = 0; i < month - 1; i++) {

  0009c	c7 45 74 00 00
	00 00		 mov	 DWORD PTR i$4[rbp], 0
  000a3	eb 08		 jmp	 SHORT $LN4@dayOfYear
$LN2@dayOfYear:
  000a5	8b 45 74	 mov	 eax, DWORD PTR i$4[rbp]
  000a8	ff c0		 inc	 eax
  000aa	89 45 74	 mov	 DWORD PTR i$4[rbp], eax
$LN4@dayOfYear:
  000ad	8b 85 78 01 00
	00		 mov	 eax, DWORD PTR month$[rbp]
  000b3	ff c8		 dec	 eax
  000b5	39 45 74	 cmp	 DWORD PTR i$4[rbp], eax
  000b8	7d 14		 jge	 SHORT $LN3@dayOfYear

; 7    : 		dayNumber += daysOfMonth[i];

  000ba	48 63 45 74	 movsxd	 rax, DWORD PTR i$4[rbp]
  000be	8b 44 85 28	 mov	 eax, DWORD PTR daysOfMonth$[rbp+rax*4]
  000c2	8b 4d 04	 mov	 ecx, DWORD PTR dayNumber$[rbp]
  000c5	03 c8		 add	 ecx, eax
  000c7	8b c1		 mov	 eax, ecx
  000c9	89 45 04	 mov	 DWORD PTR dayNumber$[rbp], eax

; 8    : 	}

  000cc	eb d7		 jmp	 SHORT $LN2@dayOfYear
$LN3@dayOfYear:

; 9    : 	if (((year % 4 == 0 && year % 100 != 0) || (year % 400 == 0)) && month > 2) {

  000ce	8b 85 80 01 00
	00		 mov	 eax, DWORD PTR year$[rbp]
  000d4	99		 cdq
  000d5	83 e2 03	 and	 edx, 3
  000d8	03 c2		 add	 eax, edx
  000da	83 e0 03	 and	 eax, 3
  000dd	2b c2		 sub	 eax, edx
  000df	85 c0		 test	 eax, eax
  000e1	75 14		 jne	 SHORT $LN7@dayOfYear
  000e3	8b 85 80 01 00
	00		 mov	 eax, DWORD PTR year$[rbp]
  000e9	99		 cdq
  000ea	b9 64 00 00 00	 mov	 ecx, 100		; 00000064H
  000ef	f7 f9		 idiv	 ecx
  000f1	8b c2		 mov	 eax, edx
  000f3	85 c0		 test	 eax, eax
  000f5	75 14		 jne	 SHORT $LN6@dayOfYear
$LN7@dayOfYear:
  000f7	8b 85 80 01 00
	00		 mov	 eax, DWORD PTR year$[rbp]
  000fd	99		 cdq
  000fe	b9 90 01 00 00	 mov	 ecx, 400		; 00000190H
  00103	f7 f9		 idiv	 ecx
  00105	8b c2		 mov	 eax, edx
  00107	85 c0		 test	 eax, eax
  00109	75 11		 jne	 SHORT $LN5@dayOfYear
$LN6@dayOfYear:
  0010b	83 bd 78 01 00
	00 02		 cmp	 DWORD PTR month$[rbp], 2
  00112	7e 08		 jle	 SHORT $LN5@dayOfYear

; 10   : 		dayNumber++;

  00114	8b 45 04	 mov	 eax, DWORD PTR dayNumber$[rbp]
  00117	ff c0		 inc	 eax
  00119	89 45 04	 mov	 DWORD PTR dayNumber$[rbp], eax
$LN5@dayOfYear:

; 11   : 	}
; 12   : 	return dayNumber;

  0011c	8b 45 04	 mov	 eax, DWORD PTR dayNumber$[rbp]

; 13   : }

  0011f	8b f8		 mov	 edi, eax
  00121	48 8d 4d e0	 lea	 rcx, QWORD PTR [rbp-32]
  00125	48 8d 15 00 00
	00 00		 lea	 rdx, OFFSET FLAT:?dayOfYear@@YAHHHH@Z$rtcFrameData
  0012c	e8 00 00 00 00	 call	 _RTC_CheckStackVars
  00131	8b c7		 mov	 eax, edi
  00133	48 8d a5 58 01
	00 00		 lea	 rsp, QWORD PTR [rbp+344]
  0013a	5f		 pop	 rdi
  0013b	5d		 pop	 rbp
  0013c	c3		 ret	 0
?dayOfYear@@YAHHHH@Z ENDP				; dayOfYear
_TEXT	ENDS
; Function compile flags: /Odtp /RTCsu /ZI
; File E:\2 семестр\КПО\Лаба_1\calendar01\Laba_1\dayOfYear.cpp
;	COMDAT ?__empty_global_delete@@YAXPEAX_K@Z
_TEXT	SEGMENT
__formal$ = 224
__formal$ = 232
?__empty_global_delete@@YAXPEAX_K@Z PROC		; __empty_global_delete, COMDAT

$LN3:
  00000	48 89 54 24 10	 mov	 QWORD PTR [rsp+16], rdx
  00005	48 89 4c 24 08	 mov	 QWORD PTR [rsp+8], rcx
  0000a	55		 push	 rbp
  0000b	57		 push	 rdi
  0000c	48 81 ec e8 00
	00 00		 sub	 rsp, 232		; 000000e8H
  00013	48 8d 6c 24 20	 lea	 rbp, QWORD PTR [rsp+32]
  00018	48 8d 0d 00 00
	00 00		 lea	 rcx, OFFSET FLAT:__587FDEF0_dayOfYear@cpp
  0001f	e8 00 00 00 00	 call	 __CheckForDebuggerJustMyCode
  00024	48 8d a5 c8 00
	00 00		 lea	 rsp, QWORD PTR [rbp+200]
  0002b	5f		 pop	 rdi
  0002c	5d		 pop	 rbp
  0002d	c3		 ret	 0
?__empty_global_delete@@YAXPEAX_K@Z ENDP		; __empty_global_delete
_TEXT	ENDS
; Function compile flags: /Odtp /RTCsu /ZI
; File E:\2 семестр\КПО\Лаба_1\calendar01\Laba_1\dayOfYear.cpp
;	COMDAT ?__empty_global_delete@@YAXPEAX@Z
_TEXT	SEGMENT
__formal$ = 224
?__empty_global_delete@@YAXPEAX@Z PROC			; __empty_global_delete, COMDAT

$LN3:
  00000	48 89 4c 24 08	 mov	 QWORD PTR [rsp+8], rcx
  00005	55		 push	 rbp
  00006	57		 push	 rdi
  00007	48 81 ec e8 00
	00 00		 sub	 rsp, 232		; 000000e8H
  0000e	48 8d 6c 24 20	 lea	 rbp, QWORD PTR [rsp+32]
  00013	48 8d 0d 00 00
	00 00		 lea	 rcx, OFFSET FLAT:__587FDEF0_dayOfYear@cpp
  0001a	e8 00 00 00 00	 call	 __CheckForDebuggerJustMyCode
  0001f	48 8d a5 c8 00
	00 00		 lea	 rsp, QWORD PTR [rbp+200]
  00026	5f		 pop	 rdi
  00027	5d		 pop	 rbp
  00028	c3		 ret	 0
?__empty_global_delete@@YAXPEAX@Z ENDP			; __empty_global_delete
_TEXT	ENDS
END
