; Listing generated by Microsoft (R) Optimizing Compiler Version 19.39.33520.0 

include listing.inc

INCLUDELIB MSVCRTD
INCLUDELIB OLDNAMES

msvcjmc	SEGMENT
__47DDD456_Laba_1@pch DB 01H
__BB16330F_corecrt_math@h DB 01H
__6E5ACABA_stdlib@h DB 01H
__3313218A_system_error DB 01H
__086A95F5_stdexcept DB 01H
__AD2CEE3A_xlocinfo DB 01H
__B2A50DF2_typeinfo DB 01H
__851B68E1_vcruntime_typeinfo@h DB 01H
__6610A6D2_stdafx@cpp DB 01H
__B555CCA8_memory DB 01H
__09FBC026_limits DB 01H
__85F4241F_vcruntime_exception@h DB 01H
__2F328FEB_utility DB 01H
__C27AFEEB_xutility DB 01H
__A3D3E4E8_vcruntime_new@h DB 01H
__7C4A1519_type_traits DB 01H
__45A7EC28_xmemory DB 01H
__0ACA2D49_streambuf DB 01H
__31746AB4_xstring DB 01H
__C1EC35D3_stdio@h DB 01H
__44420885_corecrt_stdio_config@h DB 01H
__70CD7892_xlocnum DB 01H
__A8CE9780_ios DB 01H
__D3D649AB_iterator DB 01H
__94C99929_xiosbase DB 01H
__EE4A1E85_xlocale DB 01H
__99109BA7_xfacet DB 01H
__FD5AC441_ostream DB 01H
__9E8AF17B_istream DB 01H
__7D9BF697_main@cpp DB 01H
__66053627_stdafx@h DB 01H
msvcjmc	ENDS
PUBLIC	?__empty_global_delete@@YAXPEAX@Z		; __empty_global_delete
PUBLIC	?__empty_global_delete@@YAXPEAX_K@Z		; __empty_global_delete
PUBLIC	?length@?$_Narrow_char_traits@DH@std@@SA_KQEBD@Z ; std::_Narrow_char_traits<char,int>::length
PUBLIC	?eq_int_type@?$_Narrow_char_traits@DH@std@@SA_NHH@Z ; std::_Narrow_char_traits<char,int>::eq_int_type
PUBLIC	?eof@?$_Narrow_char_traits@DH@std@@SAHXZ	; std::_Narrow_char_traits<char,int>::eof
PUBLIC	main
PUBLIC	??$?6U?$char_traits@D@std@@@std@@YAAEAV?$basic_ostream@DU?$char_traits@D@std@@@0@AEAV10@PEBD@Z ; std::operator<<<std::char_traits<char> >
PUBLIC	??$endl@DU?$char_traits@D@std@@@std@@YAAEAV?$basic_ostream@DU?$char_traits@D@std@@@0@AEAV10@@Z ; std::endl<char,std::char_traits<char> >
PUBLIC	??0_Sentry_base@?$basic_ostream@DU?$char_traits@D@std@@@std@@QEAA@AEAV12@@Z ; std::basic_ostream<char,std::char_traits<char> >::_Sentry_base::_Sentry_base
PUBLIC	??1_Sentry_base@?$basic_ostream@DU?$char_traits@D@std@@@std@@QEAA@XZ ; std::basic_ostream<char,std::char_traits<char> >::_Sentry_base::~_Sentry_base
PUBLIC	??0sentry@?$basic_ostream@DU?$char_traits@D@std@@@std@@QEAA@AEAV12@@Z ; std::basic_ostream<char,std::char_traits<char> >::sentry::sentry
PUBLIC	??1sentry@?$basic_ostream@DU?$char_traits@D@std@@@std@@QEAA@XZ ; std::basic_ostream<char,std::char_traits<char> >::sentry::~sentry
PUBLIC	??Bsentry@?$basic_ostream@DU?$char_traits@D@std@@@std@@QEBA_NXZ ; std::basic_ostream<char,std::char_traits<char> >::sentry::operator bool
PUBLIC	__JustMyCode_Default
PUBLIC	??_C@_01LFCBOECM@?4@				; `string'
PUBLIC	??_C@_02FIDBHGA@ru@				; `string'
PUBLIC	??_C@_0BD@JGNLEDKD@?B?$PL?a?e?p?h?r?e?5?d?e?i?q?r?b?h?e?3@ ; `string'
PUBLIC	??_C@_0DF@NMBNDOBM@1?4?5?N?o?p?e?d?e?k?h?r?$PM?0?5?$PP?b?k?$PP?e?r?q?$PP?5?k?h?5?b?b?e?d@ ; `string'
PUBLIC	??_C@_0DF@NJGBAAJC@2?4?5?B?$PL?w?h?q?k?h?r?$PM?5?o?n?p?$PP?d?j?n?b?$PL?i?5?m?n?l?e?p?5?b@ ; `string'
PUBLIC	??_C@_0EH@IIEELMOK@3?4?5?B?$PL?w?h?q?k?h?r?$PM?0?5?q?j?n?k?$PM?j?n?5?d?m?e?i?5?n?q?r?$OA@ ; `string'
PUBLIC	??_C@_0M@EJIEDNJD@?B?$OA?x?5?b?$PL?a?n?p?3?5@	; `string'
PUBLIC	??_C@_0CK@HALLMLDE@?N?x?h?a?j?$OA?$CB?5?B?b?e?d?$LI?m?5?m?e?b?e?p?m?$PL?i?5?b?$OA?p?h?$OA?m?r@ ; `string'
PUBLIC	??_C@_0DE@EBINKEND@?N?r?k?h?w?m?n?$CB?5?R?e?o?e?p?$PM?5?b?b?e?d?h?r?e?5?d?$OA?r?s?5?b?5@ ; `string'
PUBLIC	??_C@_0BN@MDBELKLM@?N?x?h?a?j?$OA?$CB?5?B?e?d?h?r?e?5?d?$OA?r?s?5?e?y?e?5?p?$OA?g?4@ ; `string'
PUBLIC	??_C@_0BK@OICKCOPF@?5?c?n?d?5?$PP?b?k?$PP?e?r?q?$PP?5?b?h?q?n?j?n?q?m?$PL?l?4@ ; `string'
PUBLIC	??_C@_0DF@PHNOKLHG@?U?n?r?h?r?e?5?o?p?n?d?n?k?f?h?r?$PM?$DP?5?E?q?k?h?5?d?$OA?5?9?5?b?b@ ; `string'
PUBLIC	??_C@_0BK@HEEPGOAC@?B?b?e?d?h?r?e?5?j?n?p?p?e?j?r?m?n?e?5?w?h?q?k?n?$CB@ ; `string'
PUBLIC	??_C@_0BN@LLDJGEGL@?5?c?n?d?5?m?e?5?$PP?b?k?$PP?e?r?q?$PP?5?b?h?q?n?j?n?q?m?$PL?l?4@ ; `string'
PUBLIC	??_C@_0BN@CGBIHHKN@?O?n?p?$PP?d?j?n?b?$PL?i?5?m?n?l?e?p?5?d?m?$PP?5?b?5?c?n?d?s?5@ ; `string'
PUBLIC	??_C@_0DB@MMKPANFF@?B?b?e?d?h?r?e?5?d?$OA?r?s?5?d?m?$PP?5?p?n?f?d?e?m?h?$PP?5?b?5?t?n?p@ ; `string'
PUBLIC	??_C@_0CI@MKMCGGBM@?J?n?k?h?w?e?q?r?b?n?5?d?m?e?i?5?d?n?5?b?$OA?x?e?c?n?5?D?m?$PP?5?p@ ; `string'
EXTRN	__imp_exit:PROC
EXTRN	strlen:PROC
EXTRN	?uncaught_exception@std@@YA_NXZ:PROC		; std::uncaught_exception
EXTRN	__imp_setlocale:PROC
EXTRN	__imp_?good@ios_base@std@@QEBA_NXZ:PROC
EXTRN	__imp_?flags@ios_base@std@@QEBAHXZ:PROC
EXTRN	__imp_?width@ios_base@std@@QEBA_JXZ:PROC
EXTRN	__imp_?width@ios_base@std@@QEAA_J_J@Z:PROC
EXTRN	__imp_?sputc@?$basic_streambuf@DU?$char_traits@D@std@@@std@@QEAAHD@Z:PROC
EXTRN	__imp_?sputn@?$basic_streambuf@DU?$char_traits@D@std@@@std@@QEAA_JPEBD_J@Z:PROC
EXTRN	__imp_?setstate@?$basic_ios@DU?$char_traits@D@std@@@std@@QEAAXH_N@Z:PROC
EXTRN	__imp_?tie@?$basic_ios@DU?$char_traits@D@std@@@std@@QEBAPEAV?$basic_ostream@DU?$char_traits@D@std@@@2@XZ:PROC
EXTRN	__imp_?rdbuf@?$basic_ios@DU?$char_traits@D@std@@@std@@QEBAPEAV?$basic_streambuf@DU?$char_traits@D@std@@@2@XZ:PROC
EXTRN	__imp_?fill@?$basic_ios@DU?$char_traits@D@std@@@std@@QEBADXZ:PROC
EXTRN	__imp_?widen@?$basic_ios@DU?$char_traits@D@std@@@std@@QEBADD@Z:PROC
EXTRN	__imp_?_Osfx@?$basic_ostream@DU?$char_traits@D@std@@@std@@QEAAXXZ:PROC
EXTRN	__imp_??6?$basic_ostream@DU?$char_traits@D@std@@@std@@QEAAAEAV01@P6AAEAV01@AEAV01@@Z@Z:PROC
EXTRN	__imp_??6?$basic_ostream@DU?$char_traits@D@std@@@std@@QEAAAEAV01@H@Z:PROC
EXTRN	__imp_??6?$basic_ostream@DU?$char_traits@D@std@@@std@@QEAAAEAV01@I@Z:PROC
EXTRN	__imp_?put@?$basic_ostream@DU?$char_traits@D@std@@@std@@QEAAAEAV12@D@Z:PROC
EXTRN	__imp_?flush@?$basic_ostream@DU?$char_traits@D@std@@@std@@QEAAAEAV12@XZ:PROC
EXTRN	__imp_??5?$basic_istream@DU?$char_traits@D@std@@@std@@QEAAAEAV01@AEAI@Z:PROC
EXTRN	?leapYear@@YAHH@Z:PROC				; leapYear
EXTRN	?dayOfYear@@YAHHHH@Z:PROC			; dayOfYear
EXTRN	?countOfDayUntilBirthday@@YAHHHHHHH@Z:PROC	; countOfDayUntilBirthday
EXTRN	_RTC_CheckStackVars:PROC
EXTRN	_RTC_InitBase:PROC
EXTRN	_RTC_Shutdown:PROC
EXTRN	__CheckForDebuggerJustMyCode:PROC
EXTRN	__CxxFrameHandler4:PROC
EXTRN	__GSHandlerCheck:PROC
EXTRN	__GSHandlerCheck_EH4:PROC
EXTRN	__security_check_cookie:PROC
EXTRN	__imp_?cin@std@@3V?$basic_istream@DU?$char_traits@D@std@@@1@A:BYTE
EXTRN	__imp_?cout@std@@3V?$basic_ostream@DU?$char_traits@D@std@@@1@A:BYTE
EXTRN	__security_cookie:QWORD
;	COMDAT pdata
pdata	SEGMENT
$pdata$?__empty_global_delete@@YAXPEAX@Z DD imagerel $LN3
	DD	imagerel $LN3+41
	DD	imagerel $unwind$?__empty_global_delete@@YAXPEAX@Z
pdata	ENDS
;	COMDAT pdata
pdata	SEGMENT
$pdata$?__empty_global_delete@@YAXPEAX_K@Z DD imagerel $LN3
	DD	imagerel $LN3+46
	DD	imagerel $unwind$?__empty_global_delete@@YAXPEAX_K@Z
pdata	ENDS
;	COMDAT pdata
pdata	SEGMENT
$pdata$?length@?$_Narrow_char_traits@DH@std@@SA_KQEBD@Z DD imagerel $LN4
	DD	imagerel $LN4+53
	DD	imagerel $unwind$?length@?$_Narrow_char_traits@DH@std@@SA_KQEBD@Z
pdata	ENDS
;	COMDAT pdata
pdata	SEGMENT
$pdata$?eq_int_type@?$_Narrow_char_traits@DH@std@@SA_NHH@Z DD imagerel $LN6
	DD	imagerel $LN6+87
	DD	imagerel $unwind$?eq_int_type@?$_Narrow_char_traits@DH@std@@SA_NHH@Z
pdata	ENDS
;	COMDAT pdata
pdata	SEGMENT
$pdata$?eof@?$_Narrow_char_traits@DH@std@@SAHXZ DD imagerel $LN4
	DD	imagerel $LN4+42
	DD	imagerel $unwind$?eof@?$_Narrow_char_traits@DH@std@@SAHXZ
pdata	ENDS
;	COMDAT pdata
pdata	SEGMENT
$pdata$main DD	imagerel $LN68
	DD	imagerel $LN68+2750
	DD	imagerel $unwind$main
pdata	ENDS
;	COMDAT pdata
pdata	SEGMENT
$pdata$??$?6U?$char_traits@D@std@@@std@@YAAEAV?$basic_ostream@DU?$char_traits@D@std@@@0@AEAV10@PEBD@Z DD imagerel $LN25
	DD	imagerel $LN25+943
	DD	imagerel $unwind$??$?6U?$char_traits@D@std@@@std@@YAAEAV?$basic_ostream@DU?$char_traits@D@std@@@0@AEAV10@PEBD@Z
pdata	ENDS
;	COMDAT pdata
pdata	SEGMENT
$pdata$?dtor$0@?0???$?6U?$char_traits@D@std@@@std@@YAAEAV?$basic_ostream@DU?$char_traits@D@std@@@0@AEAV10@PEBD@Z@4HA DD imagerel ?dtor$0@?0???$?6U?$char_traits@D@std@@@std@@YAAEAV?$basic_ostream@DU?$char_traits@D@std@@@0@AEAV10@PEBD@Z@4HA
	DD	imagerel ?dtor$0@?0???$?6U?$char_traits@D@std@@@std@@YAAEAV?$basic_ostream@DU?$char_traits@D@std@@@0@AEAV10@PEBD@Z@4HA+36
	DD	imagerel $unwind$?dtor$0@?0???$?6U?$char_traits@D@std@@@std@@YAAEAV?$basic_ostream@DU?$char_traits@D@std@@@0@AEAV10@PEBD@Z@4HA
pdata	ENDS
;	COMDAT pdata
pdata	SEGMENT
$pdata$?catch$1@?0???$?6U?$char_traits@D@std@@@std@@YAAEAV?$basic_ostream@DU?$char_traits@D@std@@@0@AEAV10@PEBD@Z@4HA DD imagerel ?catch$1@?0???$?6U?$char_traits@D@std@@@std@@YAAEAV?$basic_ostream@DU?$char_traits@D@std@@@0@AEAV10@PEBD@Z@4HA
	DD	imagerel ?catch$1@?0???$?6U?$char_traits@D@std@@@std@@YAAEAV?$basic_ostream@DU?$char_traits@D@std@@@0@AEAV10@PEBD@Z@4HA+80
	DD	imagerel $unwind$?catch$1@?0???$?6U?$char_traits@D@std@@@std@@YAAEAV?$basic_ostream@DU?$char_traits@D@std@@@0@AEAV10@PEBD@Z@4HA
pdata	ENDS
;	COMDAT pdata
pdata	SEGMENT
$pdata$??$endl@DU?$char_traits@D@std@@@std@@YAAEAV?$basic_ostream@DU?$char_traits@D@std@@@0@AEAV10@@Z DD imagerel $LN3
	DD	imagerel $LN3+115
	DD	imagerel $unwind$??$endl@DU?$char_traits@D@std@@@std@@YAAEAV?$basic_ostream@DU?$char_traits@D@std@@@0@AEAV10@@Z
pdata	ENDS
;	COMDAT pdata
pdata	SEGMENT
$pdata$??0_Sentry_base@?$basic_ostream@DU?$char_traits@D@std@@@std@@QEAA@AEAV12@@Z DD imagerel $LN4
	DD	imagerel $LN4+148
	DD	imagerel $unwind$??0_Sentry_base@?$basic_ostream@DU?$char_traits@D@std@@@std@@QEAA@AEAV12@@Z
pdata	ENDS
;	COMDAT pdata
pdata	SEGMENT
$pdata$??1_Sentry_base@?$basic_ostream@DU?$char_traits@D@std@@@std@@QEAA@XZ DD imagerel $LN5
	DD	imagerel $LN5+120
	DD	imagerel $unwind$??1_Sentry_base@?$basic_ostream@DU?$char_traits@D@std@@@std@@QEAA@XZ
pdata	ENDS
;	COMDAT pdata
pdata	SEGMENT
$pdata$??0sentry@?$basic_ostream@DU?$char_traits@D@std@@@std@@QEAA@AEAV12@@Z DD imagerel $LN7
	DD	imagerel $LN7+261
	DD	imagerel $unwind$??0sentry@?$basic_ostream@DU?$char_traits@D@std@@@std@@QEAA@AEAV12@@Z
pdata	ENDS
;	COMDAT pdata
pdata	SEGMENT
$pdata$?dtor$0@?0???0sentry@?$basic_ostream@DU?$char_traits@D@std@@@std@@QEAA@AEAV12@@Z@4HA DD imagerel ?dtor$0@?0???0sentry@?$basic_ostream@DU?$char_traits@D@std@@@std@@QEAA@AEAV12@@Z@4HA
	DD	imagerel ?dtor$0@?0???0sentry@?$basic_ostream@DU?$char_traits@D@std@@@std@@QEAA@AEAV12@@Z@4HA+39
	DD	imagerel $unwind$?dtor$0@?0???0sentry@?$basic_ostream@DU?$char_traits@D@std@@@std@@QEAA@AEAV12@@Z@4HA
pdata	ENDS
;	COMDAT pdata
pdata	SEGMENT
$pdata$??1sentry@?$basic_ostream@DU?$char_traits@D@std@@@std@@QEAA@XZ DD imagerel $LN7
	DD	imagerel $LN7+115
	DD	imagerel $unwind$??1sentry@?$basic_ostream@DU?$char_traits@D@std@@@std@@QEAA@XZ
pdata	ENDS
;	COMDAT pdata
pdata	SEGMENT
$pdata$??Bsentry@?$basic_ostream@DU?$char_traits@D@std@@@std@@QEBA_NXZ DD imagerel $LN3
	DD	imagerel $LN3+52
	DD	imagerel $unwind$??Bsentry@?$basic_ostream@DU?$char_traits@D@std@@@std@@QEBA_NXZ
pdata	ENDS
;	COMDAT rtc$TMZ
rtc$TMZ	SEGMENT
_RTC_Shutdown.rtc$TMZ DQ FLAT:_RTC_Shutdown
rtc$TMZ	ENDS
;	COMDAT rtc$IMZ
rtc$IMZ	SEGMENT
_RTC_InitBase.rtc$IMZ DQ FLAT:_RTC_InitBase
rtc$IMZ	ENDS
;	COMDAT ??_C@_0CI@MKMCGGBM@?J?n?k?h?w?e?q?r?b?n?5?d?m?e?i?5?d?n?5?b?$OA?x?e?c?n?5?D?m?$PP?5?p@
CONST	SEGMENT
??_C@_0CI@MKMCGGBM@?J?n?k?h?w?e?q?r?b?n?5?d?m?e?i?5?d?n?5?b?$OA?x?e?c?n?5?D?m?$PP?5?p@ DB 0caH
	DB	0eeH, 0ebH, 0e8H, 0f7H, 0e5H, 0f1H, 0f2H, 0e2H, 0eeH, ' ', 0e4H
	DB	0edH, 0e5H, 0e9H, ' ', 0e4H, 0eeH, ' ', 0e2H, 0e0H, 0f8H, 0e5H
	DB	0e3H, 0eeH, ' ', 0c4H, 0edH, 0ffH, ' ', 0f0H, 0eeH, 0e6H, 0e4H
	DB	0e5H, 0edH, 0e8H, 0ffH, ' ', 00H		; `string'
CONST	ENDS
;	COMDAT ??_C@_0DB@MMKPANFF@?B?b?e?d?h?r?e?5?d?$OA?r?s?5?d?m?$PP?5?p?n?f?d?e?m?h?$PP?5?b?5?t?n?p@
CONST	SEGMENT
??_C@_0DB@MMKPANFF@?B?b?e?d?h?r?e?5?d?$OA?r?s?5?d?m?$PP?5?p?n?f?d?e?m?h?$PP?5?b?5?t?n?p@ DB 0c2H
	DB	0e2H, 0e5H, 0e4H, 0e8H, 0f2H, 0e5H, ' ', 0e4H, 0e0H, 0f2H, 0f3H
	DB	' ', 0e4H, 0edH, 0ffH, ' ', 0f0H, 0eeH, 0e6H, 0e4H, 0e5H, 0edH
	DB	0e8H, 0ffH, ' ', 0e2H, ' ', 0f4H, 0eeH, 0f0H, 0ecH, 0e0H, 0f2H
	DB	0e5H, ' ', 0c4H, 0c4H, ' ', 0ccH, 0ccH, ' ', 0c3H, 0c3H, 0c3H, 0c3H
	DB	': ', 00H					; `string'
CONST	ENDS
;	COMDAT ??_C@_0BN@CGBIHHKN@?O?n?p?$PP?d?j?n?b?$PL?i?5?m?n?l?e?p?5?d?m?$PP?5?b?5?c?n?d?s?5@
CONST	SEGMENT
??_C@_0BN@CGBIHHKN@?O?n?p?$PP?d?j?n?b?$PL?i?5?m?n?l?e?p?5?d?m?$PP?5?b?5?c?n?d?s?5@ DB 0cfH
	DB	0eeH, 0f0H, 0ffH, 0e4H, 0eaH, 0eeH, 0e2H, 0fbH, 0e9H, ' ', 0edH
	DB	0eeH, 0ecH, 0e5H, 0f0H, ' ', 0e4H, 0edH, 0ffH, ' ', 0e2H, ' ', 0e3H
	DB	0eeH, 0e4H, 0f3H, ' ', 00H			; `string'
CONST	ENDS
;	COMDAT ??_C@_0BN@LLDJGEGL@?5?c?n?d?5?m?e?5?$PP?b?k?$PP?e?r?q?$PP?5?b?h?q?n?j?n?q?m?$PL?l?4@
CONST	SEGMENT
??_C@_0BN@LLDJGEGL@?5?c?n?d?5?m?e?5?$PP?b?k?$PP?e?r?q?$PP?5?b?h?q?n?j?n?q?m?$PL?l?4@ DB ' '
	DB	0e3H, 0eeH, 0e4H, ' ', 0edH, 0e5H, ' ', 0ffH, 0e2H, 0ebH, 0ffH
	DB	0e5H, 0f2H, 0f1H, 0ffH, ' ', 0e2H, 0e8H, 0f1H, 0eeH, 0eaH, 0eeH
	DB	0f1H, 0edH, 0fbH, 0ecH, '.', 00H		; `string'
CONST	ENDS
;	COMDAT ??_C@_0BK@HEEPGOAC@?B?b?e?d?h?r?e?5?j?n?p?p?e?j?r?m?n?e?5?w?h?q?k?n?$CB@
CONST	SEGMENT
??_C@_0BK@HEEPGOAC@?B?b?e?d?h?r?e?5?j?n?p?p?e?j?r?m?n?e?5?w?h?q?k?n?$CB@ DB 0c2H
	DB	0e2H, 0e5H, 0e4H, 0e8H, 0f2H, 0e5H, ' ', 0eaH, 0eeH, 0f0H, 0f0H
	DB	0e5H, 0eaH, 0f2H, 0edH, 0eeH, 0e5H, ' ', 0f7H, 0e8H, 0f1H, 0ebH
	DB	0eeH, '!', 00H				; `string'
CONST	ENDS
;	COMDAT ??_C@_0DF@PHNOKLHG@?U?n?r?h?r?e?5?o?p?n?d?n?k?f?h?r?$PM?$DP?5?E?q?k?h?5?d?$OA?5?9?5?b?b@
CONST	SEGMENT
??_C@_0DF@PHNOKLHG@?U?n?r?h?r?e?5?o?p?n?d?n?k?f?h?r?$PM?$DP?5?E?q?k?h?5?d?$OA?5?9?5?b?b@ DB 0d5H
	DB	0eeH, 0f2H, 0e8H, 0f2H, 0e5H, ' ', 0efH, 0f0H, 0eeH, 0e4H, 0eeH
	DB	0ebH, 0e6H, 0e8H, 0f2H, 0fcH, '? ', 0c5H, 0f1H, 0ebH, 0e8H, ' '
	DB	0e4H, 0e0H, ' - ', 0e2H, 0e2H, 0e5H, 0e4H, 0e8H, 0f2H, 0e5H, ' '
	DB	'1, ', 0e5H, 0f1H, 0ebH, 0e8H, ' ', 0edH, 0e5H, 0f2H, ' - 0', 00H ; `string'
CONST	ENDS
;	COMDAT ??_C@_0BK@OICKCOPF@?5?c?n?d?5?$PP?b?k?$PP?e?r?q?$PP?5?b?h?q?n?j?n?q?m?$PL?l?4@
CONST	SEGMENT
??_C@_0BK@OICKCOPF@?5?c?n?d?5?$PP?b?k?$PP?e?r?q?$PP?5?b?h?q?n?j?n?q?m?$PL?l?4@ DB ' '
	DB	0e3H, 0eeH, 0e4H, ' ', 0ffH, 0e2H, 0ebH, 0ffH, 0e5H, 0f2H, 0f1H
	DB	0ffH, ' ', 0e2H, 0e8H, 0f1H, 0eeH, 0eaH, 0eeH, 0f1H, 0edH, 0fbH
	DB	0ecH, '.', 00H				; `string'
CONST	ENDS
;	COMDAT ??_C@_0BN@MDBELKLM@?N?x?h?a?j?$OA?$CB?5?B?e?d?h?r?e?5?d?$OA?r?s?5?e?y?e?5?p?$OA?g?4@
CONST	SEGMENT
??_C@_0BN@MDBELKLM@?N?x?h?a?j?$OA?$CB?5?B?e?d?h?r?e?5?d?$OA?r?s?5?e?y?e?5?p?$OA?g?4@ DB 0ceH
	DB	0f8H, 0e8H, 0e1H, 0eaH, 0e0H, '! ', 0c2H, 0e5H, 0e4H, 0e8H, 0f2H
	DB	0e5H, ' ', 0e4H, 0e0H, 0f2H, 0f3H, ' ', 0e5H, 0f9H, 0e5H, ' ', 0f0H
	DB	0e0H, 0e7H, '.', 00H				; `string'
CONST	ENDS
;	COMDAT ??_C@_0DE@EBINKEND@?N?r?k?h?w?m?n?$CB?5?R?e?o?e?p?$PM?5?b?b?e?d?h?r?e?5?d?$OA?r?s?5?b?5@
CONST	SEGMENT
??_C@_0DE@EBINKEND@?N?r?k?h?w?m?n?$CB?5?R?e?o?e?p?$PM?5?b?b?e?d?h?r?e?5?d?$OA?r?s?5?b?5@ DB 0ceH
	DB	0f2H, 0ebH, 0e8H, 0f7H, 0edH, 0eeH, '! ', 0d2H, 0e5H, 0efH, 0e5H
	DB	0f0H, 0fcH, ' ', 0e2H, 0e2H, 0e5H, 0e4H, 0e8H, 0f2H, 0e5H, ' ', 0e4H
	DB	0e0H, 0f2H, 0f3H, ' ', 0e2H, ' ', 0f4H, 0eeH, 0f0H, 0ecH, 0e0H
	DB	0f2H, 0e5H, ' ', 0c4H, 0c4H, ' ', 0ccH, 0ccH, ' ', 0c3H, 0c3H, 0c3H
	DB	0c3H, ': ', 00H				; `string'
CONST	ENDS
;	COMDAT ??_C@_0CK@HALLMLDE@?N?x?h?a?j?$OA?$CB?5?B?b?e?d?$LI?m?5?m?e?b?e?p?m?$PL?i?5?b?$OA?p?h?$OA?m?r@
CONST	SEGMENT
??_C@_0CK@HALLMLDE@?N?x?h?a?j?$OA?$CB?5?B?b?e?d?$LI?m?5?m?e?b?e?p?m?$PL?i?5?b?$OA?p?h?$OA?m?r@ DB 0ceH
	DB	0f8H, 0e8H, 0e1H, 0eaH, 0e0H, '! ', 0c2H, 0e2H, 0e5H, 0e4H, 0b8H
	DB	0edH, ' ', 0edH, 0e5H, 0e2H, 0e5H, 0f0H, 0edH, 0fbH, 0e9H, ' ', 0e2H
	DB	0e0H, 0f0H, 0e8H, 0e0H, 0edH, 0f2H, ' ', 0e4H, 0e5H, 0e9H, 0f1H
	DB	0f2H, 0e2H, 0e8H, 0ffH, '.', 00H		; `string'
CONST	ENDS
;	COMDAT ??_C@_0M@EJIEDNJD@?B?$OA?x?5?b?$PL?a?n?p?3?5@
CONST	SEGMENT
??_C@_0M@EJIEDNJD@?B?$OA?x?5?b?$PL?a?n?p?3?5@ DB 0c2H, 0e0H, 0f8H, ' ', 0e2H
	DB	0fbH, 0e1H, 0eeH, 0f0H, ': ', 00H		; `string'
CONST	ENDS
;	COMDAT ??_C@_0EH@IIEELMOK@3?4?5?B?$PL?w?h?q?k?h?r?$PM?0?5?q?j?n?k?$PM?j?n?5?d?m?e?i?5?n?q?r?$OA@
CONST	SEGMENT
??_C@_0EH@IIEELMOK@3?4?5?B?$PL?w?h?q?k?h?r?$PM?0?5?q?j?n?k?$PM?j?n?5?d?m?e?i?5?n?q?r?$OA@ DB '3'
	DB	'. ', 0c2H, 0fbH, 0f7H, 0e8H, 0f1H, 0ebH, 0e8H, 0f2H, 0fcH, ','
	DB	' ', 0f1H, 0eaH, 0eeH, 0ebH, 0fcH, 0eaH, 0eeH, ' ', 0e4H, 0edH
	DB	0e5H, 0e9H, ' ', 0eeH, 0f1H, 0f2H, 0e0H, 0ebH, 0eeH, 0f1H, 0fcH
	DB	' ', 0e4H, 0eeH, ' ', 0e1H, 0ebH, 0e8H, 0e6H, 0e0H, 0e9H, 0f8H
	DB	0e5H, 0e3H, 0eeH, ' ', 0e2H, 0e0H, 0f8H, 0e5H, 0e3H, 0eeH, ' ', 0c4H
	DB	0edH, 0ffH, ' ', 0f0H, 0eeH, 0e6H, 0e4H, 0e5H, 0edH, 0e8H, 0ffH
	DB	'.', 00H					; `string'
CONST	ENDS
;	COMDAT ??_C@_0DF@NJGBAAJC@2?4?5?B?$PL?w?h?q?k?h?r?$PM?5?o?n?p?$PP?d?j?n?b?$PL?i?5?m?n?l?e?p?5?b@
CONST	SEGMENT
??_C@_0DF@NJGBAAJC@2?4?5?B?$PL?w?h?q?k?h?r?$PM?5?o?n?p?$PP?d?j?n?b?$PL?i?5?m?n?l?e?p?5?b@ DB '2'
	DB	'. ', 0c2H, 0fbH, 0f7H, 0e8H, 0f1H, 0ebH, 0e8H, 0f2H, 0fcH, ' '
	DB	0efH, 0eeH, 0f0H, 0ffH, 0e4H, 0eaH, 0eeH, 0e2H, 0fbH, 0e9H, ' '
	DB	0edH, 0eeH, 0ecH, 0e5H, 0f0H, ' ', 0e2H, 0e2H, 0e5H, 0e4H, 0b8H
	DB	0edH, 0edH, 0eeH, 0e3H, 0eeH, ' ', 0e4H, 0edH, 0ffH, ' ', 0e2H
	DB	' ', 0e3H, 0eeH, 0e4H, 0f3H, '.', 00H	; `string'
CONST	ENDS
;	COMDAT ??_C@_0DF@NMBNDOBM@1?4?5?N?o?p?e?d?e?k?h?r?$PM?0?5?$PP?b?k?$PP?e?r?q?$PP?5?k?h?5?b?b?e?d@
CONST	SEGMENT
??_C@_0DF@NMBNDOBM@1?4?5?N?o?p?e?d?e?k?h?r?$PM?0?5?$PP?b?k?$PP?e?r?q?$PP?5?k?h?5?b?b?e?d@ DB '1'
	DB	'. ', 0ceH, 0efH, 0f0H, 0e5H, 0e4H, 0e5H, 0ebH, 0e8H, 0f2H, 0fcH
	DB	', ', 0ffH, 0e2H, 0ebH, 0ffH, 0e5H, 0f2H, 0f1H, 0ffH, ' ', 0ebH
	DB	0e8H, ' ', 0e2H, 0e2H, 0e5H, 0e4H, 0b8H, 0edH, 0edH, 0fbH, 0e9H
	DB	' ', 0e3H, 0eeH, 0e4H, ' ', 0e2H, 0e8H, 0f1H, 0eeH, 0eaH, 0eeH
	DB	0f1H, 0edH, 0fbH, 0ecH, '.', 00H		; `string'
CONST	ENDS
;	COMDAT ??_C@_0BD@JGNLEDKD@?B?$PL?a?e?p?h?r?e?5?d?e?i?q?r?b?h?e?3@
CONST	SEGMENT
??_C@_0BD@JGNLEDKD@?B?$PL?a?e?p?h?r?e?5?d?e?i?q?r?b?h?e?3@ DB 0c2H, 0fbH, 0e1H
	DB	0e5H, 0f0H, 0e8H, 0f2H, 0e5H, ' ', 0e4H, 0e5H, 0e9H, 0f1H, 0f2H
	DB	0e2H, 0e8H, 0e5H, ':', 00H			; `string'
CONST	ENDS
;	COMDAT ??_C@_02FIDBHGA@ru@
CONST	SEGMENT
??_C@_02FIDBHGA@ru@ DB 'ru', 00H			; `string'
CONST	ENDS
;	COMDAT ??_C@_01LFCBOECM@?4@
CONST	SEGMENT
??_C@_01LFCBOECM@?4@ DB '.', 00H			; `string'
CONST	ENDS
;	COMDAT xdata
xdata	SEGMENT
$unwind$??Bsentry@?$basic_ostream@DU?$char_traits@D@std@@@std@@QEBA_NXZ DD 025051301H
	DD	010e2313H
	DD	07007001dH
	DD	05006H
xdata	ENDS
;	COMDAT xdata
xdata	SEGMENT
$unwind$??1sentry@?$basic_ostream@DU?$char_traits@D@std@@@std@@QEAA@XZ DD 025051301H
	DD	010e2313H
	DD	070070021H
	DD	05006H
xdata	ENDS
;	COMDAT voltbl
voltbl	SEGMENT
_volmd	DB	00H
	DB	05H
voltbl	ENDS
;	COMDAT xdata
xdata	SEGMENT
$unwind$?dtor$0@?0???0sentry@?$basic_ostream@DU?$char_traits@D@std@@@std@@QEAA@AEAV12@@Z@4HA DD 031001H
	DD	0700c4210H
	DD	0500bH
xdata	ENDS
;	COMDAT xdata
xdata	SEGMENT
$ip2state$??0sentry@?$basic_ostream@DU?$char_traits@D@std@@@std@@QEAA@AEAV12@@Z DB 06H
	DB	00H
	DB	00H
	DB	'p'
	DB	02H
	DB	0f1H, 02H
	DB	00H
xdata	ENDS
;	COMDAT xdata
xdata	SEGMENT
$stateUnwindMap$??0sentry@?$basic_ostream@DU?$char_traits@D@std@@@std@@QEAA@AEAV12@@Z DB 02H
	DB	0eH
	DD	imagerel ?dtor$0@?0???0sentry@?$basic_ostream@DU?$char_traits@D@std@@@std@@QEAA@AEAV12@@Z@4HA
xdata	ENDS
;	COMDAT xdata
xdata	SEGMENT
$cppxdata$??0sentry@?$basic_ostream@DU?$char_traits@D@std@@@std@@QEAA@AEAV12@@Z DB 028H
	DD	imagerel $stateUnwindMap$??0sentry@?$basic_ostream@DU?$char_traits@D@std@@@std@@QEAA@AEAV12@@Z
	DD	imagerel $ip2state$??0sentry@?$basic_ostream@DU?$char_traits@D@std@@@std@@QEAA@AEAV12@@Z
xdata	ENDS
;	COMDAT xdata
xdata	SEGMENT
$unwind$??0sentry@?$basic_ostream@DU?$char_traits@D@std@@@std@@QEAA@AEAV12@@Z DD 025051811H
	DD	01132318H
	DD	0700c0021H
	DD	0500bH
	DD	imagerel __CxxFrameHandler4
	DD	imagerel $cppxdata$??0sentry@?$basic_ostream@DU?$char_traits@D@std@@@std@@QEAA@AEAV12@@Z
xdata	ENDS
;	COMDAT xdata
xdata	SEGMENT
$ip2state$??1_Sentry_base@?$basic_ostream@DU?$char_traits@D@std@@@std@@QEAA@XZ DB 02H
	DB	00H
	DB	00H
xdata	ENDS
;	COMDAT xdata
xdata	SEGMENT
$cppxdata$??1_Sentry_base@?$basic_ostream@DU?$char_traits@D@std@@@std@@QEAA@XZ DB 060H
	DD	imagerel $ip2state$??1_Sentry_base@?$basic_ostream@DU?$char_traits@D@std@@@std@@QEAA@XZ
xdata	ENDS
;	COMDAT xdata
xdata	SEGMENT
$unwind$??1_Sentry_base@?$basic_ostream@DU?$char_traits@D@std@@@std@@QEAA@XZ DD 025051319H
	DD	010e2313H
	DD	070070021H
	DD	05006H
	DD	imagerel __CxxFrameHandler4
	DD	imagerel $cppxdata$??1_Sentry_base@?$basic_ostream@DU?$char_traits@D@std@@@std@@QEAA@XZ
xdata	ENDS
;	COMDAT xdata
xdata	SEGMENT
$unwind$??0_Sentry_base@?$basic_ostream@DU?$char_traits@D@std@@@std@@QEAA@AEAV12@@Z DD 025051801H
	DD	01132318H
	DD	0700c0021H
	DD	0500bH
xdata	ENDS
;	COMDAT xdata
xdata	SEGMENT
$unwind$??$endl@DU?$char_traits@D@std@@@std@@YAAEAV?$basic_ostream@DU?$char_traits@D@std@@@0@AEAV10@@Z DD 025051301H
	DD	010e2313H
	DD	07007001dH
	DD	05006H
xdata	ENDS
;	COMDAT voltbl
voltbl	SEGMENT
_volmd	DB	00H
	DB	05H
voltbl	ENDS
;	COMDAT voltbl
voltbl	SEGMENT
_volmd	DB	00H
	DB	05H
voltbl	ENDS
;	COMDAT voltbl
voltbl	SEGMENT
_volmd	DW	03bH
	DW	0396H
voltbl	ENDS
;	COMDAT xdata
xdata	SEGMENT
$unwind$?catch$1@?0???$?6U?$char_traits@D@std@@@std@@YAAEAV?$basic_ostream@DU?$char_traits@D@std@@@0@AEAV10@PEBD@Z@4HA DD 031001H
	DD	0700c4210H
	DD	0500bH
xdata	ENDS
;	COMDAT xdata
xdata	SEGMENT
$unwind$?dtor$0@?0???$?6U?$char_traits@D@std@@@std@@YAAEAV?$basic_ostream@DU?$char_traits@D@std@@@0@AEAV10@PEBD@Z@4HA DD 031001H
	DD	0700c4210H
	DD	0500bH
xdata	ENDS
;	COMDAT xdata
xdata	SEGMENT
$ip2state$??$?6U?$char_traits@D@std@@@std@@YAAEAV?$basic_ostream@DU?$char_traits@D@std@@@0@AEAV10@PEBD@Z DB 0aH
	DB	00H
	DB	00H
	DB	'A', 04H
	DB	02H
	DB	'<'
	DB	04H
	DB	'!', 08H
	DB	02H
	DB	't'
	DB	00H
xdata	ENDS
;	COMDAT xdata
xdata	SEGMENT
$handlerMap$??$?6U?$char_traits@D@std@@@std@@YAAEAV?$basic_ostream@DU?$char_traits@D@std@@@0@AEAV10@PEBD@Z DB 02H
	DB	01H
	DB	080H
	DD	imagerel ?catch$1@?0???$?6U?$char_traits@D@std@@@std@@YAAEAV?$basic_ostream@DU?$char_traits@D@std@@@0@AEAV10@PEBD@Z@4HA
xdata	ENDS
;	COMDAT xdata
xdata	SEGMENT
$tryMap$??$?6U?$char_traits@D@std@@@std@@YAAEAV?$basic_ostream@DU?$char_traits@D@std@@@0@AEAV10@PEBD@Z DB 02H
	DB	02H
	DB	02H
	DB	04H
	DD	imagerel $handlerMap$??$?6U?$char_traits@D@std@@@std@@YAAEAV?$basic_ostream@DU?$char_traits@D@std@@@0@AEAV10@PEBD@Z
xdata	ENDS
;	COMDAT xdata
xdata	SEGMENT
$stateUnwindMap$??$?6U?$char_traits@D@std@@@std@@YAAEAV?$basic_ostream@DU?$char_traits@D@std@@@0@AEAV10@PEBD@Z DB 06H
	DB	0eH
	DD	imagerel ?dtor$0@?0???$?6U?$char_traits@D@std@@@std@@YAAEAV?$basic_ostream@DU?$char_traits@D@std@@@0@AEAV10@PEBD@Z@4HA
	DB	028H
	DB	030H
xdata	ENDS
;	COMDAT xdata
xdata	SEGMENT
$cppxdata$??$?6U?$char_traits@D@std@@@std@@YAAEAV?$basic_ostream@DU?$char_traits@D@std@@@0@AEAV10@PEBD@Z DB 038H
	DD	imagerel $stateUnwindMap$??$?6U?$char_traits@D@std@@@std@@YAAEAV?$basic_ostream@DU?$char_traits@D@std@@@0@AEAV10@PEBD@Z
	DD	imagerel $tryMap$??$?6U?$char_traits@D@std@@@std@@YAAEAV?$basic_ostream@DU?$char_traits@D@std@@@0@AEAV10@PEBD@Z
	DD	imagerel $ip2state$??$?6U?$char_traits@D@std@@@std@@YAAEAV?$basic_ostream@DU?$char_traits@D@std@@@0@AEAV10@PEBD@Z
xdata	ENDS
;	COMDAT xdata
xdata	SEGMENT
$unwind$??$?6U?$char_traits@D@std@@@std@@YAAEAV?$basic_ostream@DU?$char_traits@D@std@@@0@AEAV10@PEBD@Z DD 025054219H
	DD	01132318H
	DD	0700c0035H
	DD	0500bH
	DD	imagerel __GSHandlerCheck_EH4
	DD	imagerel $cppxdata$??$?6U?$char_traits@D@std@@@std@@YAAEAV?$basic_ostream@DU?$char_traits@D@std@@@0@AEAV10@PEBD@Z
	DD	0193H
xdata	ENDS
;	COMDAT CONST
CONST	SEGMENT
??$?6U?$char_traits@D@std@@@std@@YAAEAV?$basic_ostream@DU?$char_traits@D@std@@@0@AEAV10@PEBD@Z$rtcName$0 DB 05fH ; std::operator<<<std::char_traits<char> >
	DB	04fH
	DB	06bH
	DB	00H
	ORG $+12
??$?6U?$char_traits@D@std@@@std@@YAAEAV?$basic_ostream@DU?$char_traits@D@std@@@0@AEAV10@PEBD@Z$rtcVarDesc DD 088H ; std::operator<<<std::char_traits<char> >
	DD	010H
	DQ	FLAT:??$?6U?$char_traits@D@std@@@std@@YAAEAV?$basic_ostream@DU?$char_traits@D@std@@@0@AEAV10@PEBD@Z$rtcName$0
	ORG $+48
??$?6U?$char_traits@D@std@@@std@@YAAEAV?$basic_ostream@DU?$char_traits@D@std@@@0@AEAV10@PEBD@Z$rtcFrameData DD 01H ; std::operator<<<std::char_traits<char> >
	DD	00H
	DQ	FLAT:??$?6U?$char_traits@D@std@@@std@@YAAEAV?$basic_ostream@DU?$char_traits@D@std@@@0@AEAV10@PEBD@Z$rtcVarDesc
CONST	ENDS
;	COMDAT voltbl
voltbl	SEGMENT
_volmd	DW	02aH
	DW	0aa5H
voltbl	ENDS
;	COMDAT xdata
xdata	SEGMENT
$unwind$main DD	035053119H
	DD	010a330fH
	DD	07003003fH
	DD	05002H
	DD	imagerel __GSHandlerCheck
	DD	01e8H
xdata	ENDS
;	COMDAT CONST
CONST	SEGMENT
main$rtcName$0 DB 06eH
	DB	00H
	ORG $+2
main$rtcName$1 DB 064H
	DB	061H
	DB	079H
	DB	00H
main$rtcName$2 DB 06dH
	DB	06fH
	DB	06eH
	DB	074H
	DB	068H
	DB	00H
	ORG $+2
main$rtcName$3 DB 079H
	DB	065H
	DB	061H
	DB	072H
	DB	00H
	ORG $+3
main$rtcName$4 DB 069H
	DB	064H
	DB	061H
	DB	079H
	DB	00H
	ORG $+3
main$rtcName$5 DB 069H
	DB	06dH
	DB	06fH
	DB	06eH
	DB	074H
	DB	068H
	DB	00H
	ORG $+1
main$rtcName$6 DB 069H
	DB	079H
	DB	065H
	DB	061H
	DB	072H
	DB	00H
	ORG $+2
main$rtcName$7 DB 063H
	DB	068H
	DB	06fH
	DB	069H
	DB	063H
	DB	065H
	DB	00H
	ORG $+9
main$rtcVarDesc DD 0114H
	DD	04H
	DQ	FLAT:main$rtcName$7
	DD	0f4H
	DD	04H
	DQ	FLAT:main$rtcName$6
	DD	0d4H
	DD	04H
	DQ	FLAT:main$rtcName$5
	DD	0b4H
	DD	04H
	DQ	FLAT:main$rtcName$4
	DD	094H
	DD	04H
	DQ	FLAT:main$rtcName$3
	DD	074H
	DD	04H
	DQ	FLAT:main$rtcName$2
	DD	054H
	DD	04H
	DQ	FLAT:main$rtcName$1
	DD	034H
	DD	04H
	DQ	FLAT:main$rtcName$0
	ORG $+384
main$rtcFrameData DD 08H
	DD	00H
	DQ	FLAT:main$rtcVarDesc
CONST	ENDS
;	COMDAT xdata
xdata	SEGMENT
$unwind$?eof@?$_Narrow_char_traits@DH@std@@SAHXZ DD 025050f01H
	DD	010a230fH
	DD	07003001dH
	DD	05002H
xdata	ENDS
;	COMDAT xdata
xdata	SEGMENT
$unwind$?eq_int_type@?$_Narrow_char_traits@DH@std@@SA_NHH@Z DD 025051601H
	DD	01112316H
	DD	0700a001fH
	DD	05009H
xdata	ENDS
;	COMDAT xdata
xdata	SEGMENT
$unwind$?length@?$_Narrow_char_traits@DH@std@@SA_KQEBD@Z DD 025051301H
	DD	010e2313H
	DD	07007001dH
	DD	05006H
xdata	ENDS
;	COMDAT xdata
xdata	SEGMENT
$unwind$?__empty_global_delete@@YAXPEAX_K@Z DD 025051801H
	DD	01132318H
	DD	0700c001dH
	DD	0500bH
xdata	ENDS
;	COMDAT xdata
xdata	SEGMENT
$unwind$?__empty_global_delete@@YAXPEAX@Z DD 025051301H
	DD	010e2313H
	DD	07007001dH
	DD	05006H
xdata	ENDS
; Function compile flags: /Odt
;	COMDAT __JustMyCode_Default
_TEXT	SEGMENT
__JustMyCode_Default PROC				; COMDAT
  00000	c2 00 00	 ret	 0
__JustMyCode_Default ENDP
_TEXT	ENDS
; Function compile flags: /Odtp /RTCsu /ZI
; File C:\Program Files\Microsoft Visual Studio\2022\Community\VC\Tools\MSVC\14.39.33519\include\ostream
;	COMDAT ??Bsentry@?$basic_ostream@DU?$char_traits@D@std@@@std@@QEBA_NXZ
_TEXT	SEGMENT
this$ = 224
??Bsentry@?$basic_ostream@DU?$char_traits@D@std@@@std@@QEBA_NXZ PROC ; std::basic_ostream<char,std::char_traits<char> >::sentry::operator bool, COMDAT

; 128  :         explicit __CLR_OR_THIS_CALL operator bool() const {

$LN3:
  00000	48 89 4c 24 08	 mov	 QWORD PTR [rsp+8], rcx
  00005	55		 push	 rbp
  00006	57		 push	 rdi
  00007	48 81 ec e8 00
	00 00		 sub	 rsp, 232		; 000000e8H
  0000e	48 8d 6c 24 20	 lea	 rbp, QWORD PTR [rsp+32]
  00013	48 8d 0d 00 00
	00 00		 lea	 rcx, OFFSET FLAT:__FD5AC441_ostream
  0001a	e8 00 00 00 00	 call	 __CheckForDebuggerJustMyCode

; 129  :             return _Ok;

  0001f	48 8b 85 e0 00
	00 00		 mov	 rax, QWORD PTR this$[rbp]
  00026	0f b6 40 08	 movzx	 eax, BYTE PTR [rax+8]

; 130  :         }

  0002a	48 8d a5 c8 00
	00 00		 lea	 rsp, QWORD PTR [rbp+200]
  00031	5f		 pop	 rdi
  00032	5d		 pop	 rbp
  00033	c3		 ret	 0
??Bsentry@?$basic_ostream@DU?$char_traits@D@std@@@std@@QEBA_NXZ ENDP ; std::basic_ostream<char,std::char_traits<char> >::sentry::operator bool
_TEXT	ENDS
; Function compile flags: /Odtp /RTCsu /ZI
; File C:\Program Files\Microsoft Visual Studio\2022\Community\VC\Tools\MSVC\14.39.33519\include\ostream
;	COMDAT ??1sentry@?$basic_ostream@DU?$char_traits@D@std@@@std@@QEAA@XZ
_TEXT	SEGMENT
_Zero_uncaught_exceptions$ = 4
tv72 = 212
this$ = 256
??1sentry@?$basic_ostream@DU?$char_traits@D@std@@@std@@QEAA@XZ PROC ; std::basic_ostream<char,std::char_traits<char> >::sentry::~sentry, COMDAT

; 113  :         __CLR_OR_THIS_CALL ~sentry() noexcept {

$LN7:
  00000	48 89 4c 24 08	 mov	 QWORD PTR [rsp+8], rcx
  00005	55		 push	 rbp
  00006	57		 push	 rdi
  00007	48 81 ec 08 01
	00 00		 sub	 rsp, 264		; 00000108H
  0000e	48 8d 6c 24 20	 lea	 rbp, QWORD PTR [rsp+32]
  00013	48 8d 0d 00 00
	00 00		 lea	 rcx, OFFSET FLAT:__FD5AC441_ostream
  0001a	e8 00 00 00 00	 call	 __CheckForDebuggerJustMyCode

; 114  : #if !_HAS_EXCEPTIONS
; 115  :             const bool _Zero_uncaught_exceptions = true;
; 116  : #elif _HAS_DEPRECATED_UNCAUGHT_EXCEPTION
; 117  :             const bool _Zero_uncaught_exceptions = !_STD uncaught_exception(); // TRANSITION, ArchivedOS-12000909

  0001f	e8 00 00 00 00	 call	 ?uncaught_exception@std@@YA_NXZ ; std::uncaught_exception
  00024	0f b6 c0	 movzx	 eax, al
  00027	85 c0		 test	 eax, eax
  00029	75 09		 jne	 SHORT $LN4@sentry
  0002b	c6 85 d4 00 00
	00 01		 mov	 BYTE PTR tv72[rbp], 1
  00032	eb 07		 jmp	 SHORT $LN5@sentry
$LN4@sentry:
  00034	c6 85 d4 00 00
	00 00		 mov	 BYTE PTR tv72[rbp], 0
$LN5@sentry:
  0003b	0f b6 85 d4 00
	00 00		 movzx	 eax, BYTE PTR tv72[rbp]
  00042	88 45 04	 mov	 BYTE PTR _Zero_uncaught_exceptions$[rbp], al

; 118  : #else // ^^^ _HAS_DEPRECATED_UNCAUGHT_EXCEPTION / !_HAS_DEPRECATED_UNCAUGHT_EXCEPTION vvv
; 119  :             const bool _Zero_uncaught_exceptions = _STD uncaught_exceptions() == 0;
; 120  : #endif // ^^^ !_HAS_DEPRECATED_UNCAUGHT_EXCEPTION ^^^
; 121  : 
; 122  :             if (_Zero_uncaught_exceptions) {

  00045	0f b6 45 04	 movzx	 eax, BYTE PTR _Zero_uncaught_exceptions$[rbp]
  00049	85 c0		 test	 eax, eax
  0004b	74 10		 je	 SHORT $LN2@sentry

; 123  :                 this->_Myostr._Osfx();

  0004d	48 8b 85 00 01
	00 00		 mov	 rax, QWORD PTR this$[rbp]
  00054	48 8b 08	 mov	 rcx, QWORD PTR [rax]
  00057	ff 15 00 00 00
	00		 call	 QWORD PTR __imp_?_Osfx@?$basic_ostream@DU?$char_traits@D@std@@@std@@QEAAXXZ
$LN2@sentry:

; 124  :             }
; 125  :         }

  0005d	48 8b 8d 00 01
	00 00		 mov	 rcx, QWORD PTR this$[rbp]
  00064	e8 00 00 00 00	 call	 ??1_Sentry_base@?$basic_ostream@DU?$char_traits@D@std@@@std@@QEAA@XZ ; std::basic_ostream<char,std::char_traits<char> >::_Sentry_base::~_Sentry_base
  00069	48 8d a5 e8 00
	00 00		 lea	 rsp, QWORD PTR [rbp+232]
  00070	5f		 pop	 rdi
  00071	5d		 pop	 rbp
  00072	c3		 ret	 0
??1sentry@?$basic_ostream@DU?$char_traits@D@std@@@std@@QEAA@XZ ENDP ; std::basic_ostream<char,std::char_traits<char> >::sentry::~sentry
_TEXT	ENDS
; Function compile flags: /Odtp /RTCsu /ZI
; File C:\Program Files\Microsoft Visual Studio\2022\Community\VC\Tools\MSVC\14.39.33519\include\ostream
;	COMDAT ??0sentry@?$basic_ostream@DU?$char_traits@D@std@@@std@@QEAA@AEAV12@@Z
_TEXT	SEGMENT
_Tied$ = 8
this$ = 256
_Ostr$ = 264
??0sentry@?$basic_ostream@DU?$char_traits@D@std@@@std@@QEAA@AEAV12@@Z PROC ; std::basic_ostream<char,std::char_traits<char> >::sentry::sentry, COMDAT

; 96   :         explicit __CLR_OR_THIS_CALL sentry(basic_ostream& _Ostr) : _Sentry_base(_Ostr) {

$LN7:
  00000	48 89 54 24 10	 mov	 QWORD PTR [rsp+16], rdx
  00005	48 89 4c 24 08	 mov	 QWORD PTR [rsp+8], rcx
  0000a	55		 push	 rbp
  0000b	57		 push	 rdi
  0000c	48 81 ec 08 01
	00 00		 sub	 rsp, 264		; 00000108H
  00013	48 8d 6c 24 20	 lea	 rbp, QWORD PTR [rsp+32]
  00018	48 8d 0d 00 00
	00 00		 lea	 rcx, OFFSET FLAT:__FD5AC441_ostream
  0001f	e8 00 00 00 00	 call	 __CheckForDebuggerJustMyCode
  00024	48 8b 95 08 01
	00 00		 mov	 rdx, QWORD PTR _Ostr$[rbp]
  0002b	48 8b 8d 00 01
	00 00		 mov	 rcx, QWORD PTR this$[rbp]
  00032	e8 00 00 00 00	 call	 ??0_Sentry_base@?$basic_ostream@DU?$char_traits@D@std@@@std@@QEAA@AEAV12@@Z ; std::basic_ostream<char,std::char_traits<char> >::_Sentry_base::_Sentry_base
  00037	90		 npad	 1

; 97   :             if (!_Ostr.good()) {

  00038	48 8b 85 08 01
	00 00		 mov	 rax, QWORD PTR _Ostr$[rbp]
  0003f	48 8b 00	 mov	 rax, QWORD PTR [rax]
  00042	48 63 40 04	 movsxd	 rax, DWORD PTR [rax+4]
  00046	48 8b 8d 08 01
	00 00		 mov	 rcx, QWORD PTR _Ostr$[rbp]
  0004d	48 03 c8	 add	 rcx, rax
  00050	48 8b c1	 mov	 rax, rcx
  00053	48 8b c8	 mov	 rcx, rax
  00056	ff 15 00 00 00
	00		 call	 QWORD PTR __imp_?good@ios_base@std@@QEBA_NXZ
  0005c	0f b6 c0	 movzx	 eax, al
  0005f	85 c0		 test	 eax, eax
  00061	75 10		 jne	 SHORT $LN2@sentry

; 98   :                 _Ok = false;

  00063	48 8b 85 00 01
	00 00		 mov	 rax, QWORD PTR this$[rbp]
  0006a	c6 40 08 00	 mov	 BYTE PTR [rax+8], 0

; 99   :                 return;

  0006e	e9 81 00 00 00	 jmp	 $LN1@sentry
$LN2@sentry:

; 100  :             }
; 101  : 
; 102  :             const auto _Tied = _Ostr.tie();

  00073	48 8b 85 08 01
	00 00		 mov	 rax, QWORD PTR _Ostr$[rbp]
  0007a	48 8b 00	 mov	 rax, QWORD PTR [rax]
  0007d	48 63 40 04	 movsxd	 rax, DWORD PTR [rax+4]
  00081	48 8b 8d 08 01
	00 00		 mov	 rcx, QWORD PTR _Ostr$[rbp]
  00088	48 03 c8	 add	 rcx, rax
  0008b	48 8b c1	 mov	 rax, rcx
  0008e	48 8b c8	 mov	 rcx, rax
  00091	ff 15 00 00 00
	00		 call	 QWORD PTR __imp_?tie@?$basic_ios@DU?$char_traits@D@std@@@std@@QEBAPEAV?$basic_ostream@DU?$char_traits@D@std@@@2@XZ
  00097	48 89 45 08	 mov	 QWORD PTR _Tied$[rbp], rax

; 103  :             if (!_Tied || _Tied == &_Ostr) {

  0009b	48 83 7d 08 00	 cmp	 QWORD PTR _Tied$[rbp], 0
  000a0	74 0d		 je	 SHORT $LN4@sentry
  000a2	48 8b 85 08 01
	00 00		 mov	 rax, QWORD PTR _Ostr$[rbp]
  000a9	48 39 45 08	 cmp	 QWORD PTR _Tied$[rbp], rax
  000ad	75 0d		 jne	 SHORT $LN3@sentry
$LN4@sentry:

; 104  :                 _Ok = true;

  000af	48 8b 85 00 01
	00 00		 mov	 rax, QWORD PTR this$[rbp]
  000b6	c6 40 08 01	 mov	 BYTE PTR [rax+8], 1

; 105  :                 return;

  000ba	eb 38		 jmp	 SHORT $LN1@sentry
$LN3@sentry:

; 106  :             }
; 107  : 
; 108  :             _Tied->flush();

  000bc	48 8b 4d 08	 mov	 rcx, QWORD PTR _Tied$[rbp]
  000c0	ff 15 00 00 00
	00		 call	 QWORD PTR __imp_?flush@?$basic_ostream@DU?$char_traits@D@std@@@std@@QEAAAEAV12@XZ

; 109  :             _Ok = _Ostr.good(); // store test only after flushing tie

  000c6	48 8b 85 08 01
	00 00		 mov	 rax, QWORD PTR _Ostr$[rbp]
  000cd	48 8b 00	 mov	 rax, QWORD PTR [rax]
  000d0	48 63 40 04	 movsxd	 rax, DWORD PTR [rax+4]
  000d4	48 8b 8d 08 01
	00 00		 mov	 rcx, QWORD PTR _Ostr$[rbp]
  000db	48 03 c8	 add	 rcx, rax
  000de	48 8b c1	 mov	 rax, rcx
  000e1	48 8b c8	 mov	 rcx, rax
  000e4	ff 15 00 00 00
	00		 call	 QWORD PTR __imp_?good@ios_base@std@@QEBA_NXZ
  000ea	48 8b 8d 00 01
	00 00		 mov	 rcx, QWORD PTR this$[rbp]
  000f1	88 41 08	 mov	 BYTE PTR [rcx+8], al
$LN1@sentry:

; 110  :         }

  000f4	48 8b 85 00 01
	00 00		 mov	 rax, QWORD PTR this$[rbp]
  000fb	48 8d a5 e8 00
	00 00		 lea	 rsp, QWORD PTR [rbp+232]
  00102	5f		 pop	 rdi
  00103	5d		 pop	 rbp
  00104	c3		 ret	 0
??0sentry@?$basic_ostream@DU?$char_traits@D@std@@@std@@QEAA@AEAV12@@Z ENDP ; std::basic_ostream<char,std::char_traits<char> >::sentry::sentry
_TEXT	ENDS
; Function compile flags: /Odtp /RTCsu /ZI
;	COMDAT text$x
text$x	SEGMENT
_Tied$ = 8
this$ = 256
_Ostr$ = 264
?dtor$0@?0???0sentry@?$basic_ostream@DU?$char_traits@D@std@@@std@@QEAA@AEAV12@@Z@4HA PROC ; `std::basic_ostream<char,std::char_traits<char> >::sentry::sentry'::`1'::dtor$0
  00000	48 89 4c 24 08	 mov	 QWORD PTR [rsp+8], rcx
  00005	48 89 54 24 10	 mov	 QWORD PTR [rsp+16], rdx
  0000a	55		 push	 rbp
  0000b	57		 push	 rdi
  0000c	48 83 ec 28	 sub	 rsp, 40			; 00000028H
  00010	48 8d 6a 20	 lea	 rbp, QWORD PTR [rdx+32]
  00014	48 8b 8d 00 01
	00 00		 mov	 rcx, QWORD PTR this$[rbp]
  0001b	e8 00 00 00 00	 call	 ??1_Sentry_base@?$basic_ostream@DU?$char_traits@D@std@@@std@@QEAA@XZ ; std::basic_ostream<char,std::char_traits<char> >::_Sentry_base::~_Sentry_base
  00020	48 83 c4 28	 add	 rsp, 40			; 00000028H
  00024	5f		 pop	 rdi
  00025	5d		 pop	 rbp
  00026	c3		 ret	 0
?dtor$0@?0???0sentry@?$basic_ostream@DU?$char_traits@D@std@@@std@@QEAA@AEAV12@@Z@4HA ENDP ; `std::basic_ostream<char,std::char_traits<char> >::sentry::sentry'::`1'::dtor$0
text$x	ENDS
; Function compile flags: /Odtp /RTCsu /ZI
; File C:\Program Files\Microsoft Visual Studio\2022\Community\VC\Tools\MSVC\14.39.33519\include\ostream
;	COMDAT ??1_Sentry_base@?$basic_ostream@DU?$char_traits@D@std@@@std@@QEAA@XZ
_TEXT	SEGMENT
_Rdbuf$ = 8
tv72 = 216
this$ = 256
??1_Sentry_base@?$basic_ostream@DU?$char_traits@D@std@@@std@@QEAA@XZ PROC ; std::basic_ostream<char,std::char_traits<char> >::_Sentry_base::~_Sentry_base, COMDAT

; 82   :         __CLR_OR_THIS_CALL ~_Sentry_base() noexcept { // destroy after unlocking

$LN5:
  00000	48 89 4c 24 08	 mov	 QWORD PTR [rsp+8], rcx
  00005	55		 push	 rbp
  00006	57		 push	 rdi
  00007	48 81 ec 08 01
	00 00		 sub	 rsp, 264		; 00000108H
  0000e	48 8d 6c 24 20	 lea	 rbp, QWORD PTR [rsp+32]
  00013	48 8d 0d 00 00
	00 00		 lea	 rcx, OFFSET FLAT:__FD5AC441_ostream
  0001a	e8 00 00 00 00	 call	 __CheckForDebuggerJustMyCode

; 83   :             const auto _Rdbuf = _Myostr.rdbuf();

  0001f	48 8b 85 00 01
	00 00		 mov	 rax, QWORD PTR this$[rbp]
  00026	48 8b 00	 mov	 rax, QWORD PTR [rax]
  00029	48 89 85 d8 00
	00 00		 mov	 QWORD PTR tv72[rbp], rax
  00030	48 8b 85 d8 00
	00 00		 mov	 rax, QWORD PTR tv72[rbp]
  00037	48 8b 00	 mov	 rax, QWORD PTR [rax]
  0003a	48 63 40 04	 movsxd	 rax, DWORD PTR [rax+4]
  0003e	48 8b 8d d8 00
	00 00		 mov	 rcx, QWORD PTR tv72[rbp]
  00045	48 03 c8	 add	 rcx, rax
  00048	48 8b c1	 mov	 rax, rcx
  0004b	48 8b c8	 mov	 rcx, rax
  0004e	ff 15 00 00 00
	00		 call	 QWORD PTR __imp_?rdbuf@?$basic_ios@DU?$char_traits@D@std@@@std@@QEBAPEAV?$basic_streambuf@DU?$char_traits@D@std@@@2@XZ
  00054	48 89 45 08	 mov	 QWORD PTR _Rdbuf$[rbp], rax

; 84   :             if (_Rdbuf) {

  00058	48 83 7d 08 00	 cmp	 QWORD PTR _Rdbuf$[rbp], 0
  0005d	74 0f		 je	 SHORT $LN2@Sentry_bas

; 85   :                 _Rdbuf->_Unlock();

  0005f	48 8b 45 08	 mov	 rax, QWORD PTR _Rdbuf$[rbp]
  00063	48 8b 00	 mov	 rax, QWORD PTR [rax]
  00066	48 8b 4d 08	 mov	 rcx, QWORD PTR _Rdbuf$[rbp]
  0006a	ff 50 10	 call	 QWORD PTR [rax+16]
  0006d	90		 npad	 1
$LN2@Sentry_bas:

; 86   :             }
; 87   :         }

  0006e	48 8d a5 e8 00
	00 00		 lea	 rsp, QWORD PTR [rbp+232]
  00075	5f		 pop	 rdi
  00076	5d		 pop	 rbp
  00077	c3		 ret	 0
??1_Sentry_base@?$basic_ostream@DU?$char_traits@D@std@@@std@@QEAA@XZ ENDP ; std::basic_ostream<char,std::char_traits<char> >::_Sentry_base::~_Sentry_base
_TEXT	ENDS
; Function compile flags: /Odtp /RTCsu /ZI
; File C:\Program Files\Microsoft Visual Studio\2022\Community\VC\Tools\MSVC\14.39.33519\include\ostream
;	COMDAT ??0_Sentry_base@?$basic_ostream@DU?$char_traits@D@std@@@std@@QEAA@AEAV12@@Z
_TEXT	SEGMENT
_Rdbuf$ = 8
tv73 = 216
this$ = 256
_Ostr$ = 264
??0_Sentry_base@?$basic_ostream@DU?$char_traits@D@std@@@std@@QEAA@AEAV12@@Z PROC ; std::basic_ostream<char,std::char_traits<char> >::_Sentry_base::_Sentry_base, COMDAT

; 75   :         __CLR_OR_THIS_CALL _Sentry_base(basic_ostream& _Ostr) : _Myostr(_Ostr) { // lock the stream buffer, if there

$LN4:
  00000	48 89 54 24 10	 mov	 QWORD PTR [rsp+16], rdx
  00005	48 89 4c 24 08	 mov	 QWORD PTR [rsp+8], rcx
  0000a	55		 push	 rbp
  0000b	57		 push	 rdi
  0000c	48 81 ec 08 01
	00 00		 sub	 rsp, 264		; 00000108H
  00013	48 8d 6c 24 20	 lea	 rbp, QWORD PTR [rsp+32]
  00018	48 8d 0d 00 00
	00 00		 lea	 rcx, OFFSET FLAT:__FD5AC441_ostream
  0001f	e8 00 00 00 00	 call	 __CheckForDebuggerJustMyCode
  00024	48 8b 85 00 01
	00 00		 mov	 rax, QWORD PTR this$[rbp]
  0002b	48 8b 8d 08 01
	00 00		 mov	 rcx, QWORD PTR _Ostr$[rbp]
  00032	48 89 08	 mov	 QWORD PTR [rax], rcx

; 76   :             const auto _Rdbuf = _Myostr.rdbuf();

  00035	48 8b 85 00 01
	00 00		 mov	 rax, QWORD PTR this$[rbp]
  0003c	48 8b 00	 mov	 rax, QWORD PTR [rax]
  0003f	48 89 85 d8 00
	00 00		 mov	 QWORD PTR tv73[rbp], rax
  00046	48 8b 85 d8 00
	00 00		 mov	 rax, QWORD PTR tv73[rbp]
  0004d	48 8b 00	 mov	 rax, QWORD PTR [rax]
  00050	48 63 40 04	 movsxd	 rax, DWORD PTR [rax+4]
  00054	48 8b 8d d8 00
	00 00		 mov	 rcx, QWORD PTR tv73[rbp]
  0005b	48 03 c8	 add	 rcx, rax
  0005e	48 8b c1	 mov	 rax, rcx
  00061	48 8b c8	 mov	 rcx, rax
  00064	ff 15 00 00 00
	00		 call	 QWORD PTR __imp_?rdbuf@?$basic_ios@DU?$char_traits@D@std@@@std@@QEBAPEAV?$basic_streambuf@DU?$char_traits@D@std@@@2@XZ
  0006a	48 89 45 08	 mov	 QWORD PTR _Rdbuf$[rbp], rax

; 77   :             if (_Rdbuf) {

  0006e	48 83 7d 08 00	 cmp	 QWORD PTR _Rdbuf$[rbp], 0
  00073	74 0e		 je	 SHORT $LN2@Sentry_bas

; 78   :                 _Rdbuf->_Lock();

  00075	48 8b 45 08	 mov	 rax, QWORD PTR _Rdbuf$[rbp]
  00079	48 8b 00	 mov	 rax, QWORD PTR [rax]
  0007c	48 8b 4d 08	 mov	 rcx, QWORD PTR _Rdbuf$[rbp]
  00080	ff 50 08	 call	 QWORD PTR [rax+8]
$LN2@Sentry_bas:

; 79   :             }
; 80   :         }

  00083	48 8b 85 00 01
	00 00		 mov	 rax, QWORD PTR this$[rbp]
  0008a	48 8d a5 e8 00
	00 00		 lea	 rsp, QWORD PTR [rbp+232]
  00091	5f		 pop	 rdi
  00092	5d		 pop	 rbp
  00093	c3		 ret	 0
??0_Sentry_base@?$basic_ostream@DU?$char_traits@D@std@@@std@@QEAA@AEAV12@@Z ENDP ; std::basic_ostream<char,std::char_traits<char> >::_Sentry_base::_Sentry_base
_TEXT	ENDS
; Function compile flags: /Odtp /RTCsu /ZI
; File C:\Program Files\Microsoft Visual Studio\2022\Community\VC\Tools\MSVC\14.39.33519\include\ostream
;	COMDAT ??$endl@DU?$char_traits@D@std@@@std@@YAAEAV?$basic_ostream@DU?$char_traits@D@std@@@0@AEAV10@@Z
_TEXT	SEGMENT
_Ostr$ = 224
??$endl@DU?$char_traits@D@std@@@std@@YAAEAV?$basic_ostream@DU?$char_traits@D@std@@@0@AEAV10@@Z PROC ; std::endl<char,std::char_traits<char> >, COMDAT

; 1010 :     basic_ostream<_Elem, _Traits>& _Ostr) { // insert newline and flush stream

$LN3:
  00000	48 89 4c 24 08	 mov	 QWORD PTR [rsp+8], rcx
  00005	55		 push	 rbp
  00006	57		 push	 rdi
  00007	48 81 ec e8 00
	00 00		 sub	 rsp, 232		; 000000e8H
  0000e	48 8d 6c 24 20	 lea	 rbp, QWORD PTR [rsp+32]
  00013	48 8d 0d 00 00
	00 00		 lea	 rcx, OFFSET FLAT:__FD5AC441_ostream
  0001a	e8 00 00 00 00	 call	 __CheckForDebuggerJustMyCode

; 1011 :     _Ostr.put(_Ostr.widen('\n'));

  0001f	48 8b 85 e0 00
	00 00		 mov	 rax, QWORD PTR _Ostr$[rbp]
  00026	48 8b 00	 mov	 rax, QWORD PTR [rax]
  00029	48 63 40 04	 movsxd	 rax, DWORD PTR [rax+4]
  0002d	48 8b 8d e0 00
	00 00		 mov	 rcx, QWORD PTR _Ostr$[rbp]
  00034	48 03 c8	 add	 rcx, rax
  00037	48 8b c1	 mov	 rax, rcx
  0003a	b2 0a		 mov	 dl, 10
  0003c	48 8b c8	 mov	 rcx, rax
  0003f	ff 15 00 00 00
	00		 call	 QWORD PTR __imp_?widen@?$basic_ios@DU?$char_traits@D@std@@@std@@QEBADD@Z
  00045	0f b6 d0	 movzx	 edx, al
  00048	48 8b 8d e0 00
	00 00		 mov	 rcx, QWORD PTR _Ostr$[rbp]
  0004f	ff 15 00 00 00
	00		 call	 QWORD PTR __imp_?put@?$basic_ostream@DU?$char_traits@D@std@@@std@@QEAAAEAV12@D@Z

; 1012 :     _Ostr.flush();

  00055	48 8b 8d e0 00
	00 00		 mov	 rcx, QWORD PTR _Ostr$[rbp]
  0005c	ff 15 00 00 00
	00		 call	 QWORD PTR __imp_?flush@?$basic_ostream@DU?$char_traits@D@std@@@std@@QEAAAEAV12@XZ

; 1013 :     return _Ostr;

  00062	48 8b 85 e0 00
	00 00		 mov	 rax, QWORD PTR _Ostr$[rbp]

; 1014 : }

  00069	48 8d a5 c8 00
	00 00		 lea	 rsp, QWORD PTR [rbp+200]
  00070	5f		 pop	 rdi
  00071	5d		 pop	 rbp
  00072	c3		 ret	 0
??$endl@DU?$char_traits@D@std@@@std@@YAAEAV?$basic_ostream@DU?$char_traits@D@std@@@0@AEAV10@@Z ENDP ; std::endl<char,std::char_traits<char> >
_TEXT	ENDS
; Function compile flags: /Odtp /RTCsu /ZI
; File C:\Program Files\Microsoft Visual Studio\2022\Community\VC\Tools\MSVC\14.39.33519\include\ostream
;	COMDAT ??$?6U?$char_traits@D@std@@@std@@YAAEAV?$basic_ostream@DU?$char_traits@D@std@@@0@AEAV10@PEBD@Z
_TEXT	SEGMENT
_State$ = 4
_Count$ = 40
_Pad$ = 72
_Ok$ = 104
$T4 = 344
tv285 = 356
tv283 = 356
tv296 = 360
tv295 = 360
tv139 = 360
tv137 = 360
__$ArrayPad$ = 368
_Ostr$ = 416
_Val$ = 424
??$?6U?$char_traits@D@std@@@std@@YAAEAV?$basic_ostream@DU?$char_traits@D@std@@@0@AEAV10@PEBD@Z PROC ; std::operator<<<std::char_traits<char> >, COMDAT

; 766  : basic_ostream<char, _Traits>& operator<<(basic_ostream<char, _Traits>& _Ostr, const char* _Val) {

$LN25:
  00000	48 89 54 24 10	 mov	 QWORD PTR [rsp+16], rdx
  00005	48 89 4c 24 08	 mov	 QWORD PTR [rsp+8], rcx
  0000a	55		 push	 rbp
  0000b	57		 push	 rdi
  0000c	48 81 ec a8 01
	00 00		 sub	 rsp, 424		; 000001a8H
  00013	48 8d 6c 24 20	 lea	 rbp, QWORD PTR [rsp+32]
  00018	48 8d 7c 24 20	 lea	 rdi, QWORD PTR [rsp+32]
  0001d	b9 32 00 00 00	 mov	 ecx, 50			; 00000032H
  00022	b8 cc cc cc cc	 mov	 eax, -858993460		; ccccccccH
  00027	f3 ab		 rep stosd
  00029	48 8b 8c 24 c8
	01 00 00	 mov	 rcx, QWORD PTR [rsp+456]
  00031	48 8b 05 00 00
	00 00		 mov	 rax, QWORD PTR __security_cookie
  00038	48 33 c5	 xor	 rax, rbp
  0003b	48 89 85 70 01
	00 00		 mov	 QWORD PTR __$ArrayPad$[rbp], rax
  00042	48 8d 0d 00 00
	00 00		 lea	 rcx, OFFSET FLAT:__FD5AC441_ostream
  00049	e8 00 00 00 00	 call	 __CheckForDebuggerJustMyCode

; 767  :     // insert NTBS into char stream
; 768  :     using _Elem = char;
; 769  :     using _Myos = basic_ostream<_Elem, _Traits>;
; 770  : 
; 771  :     ios_base::iostate _State = ios_base::goodbit;

  0004e	c7 45 04 00 00
	00 00		 mov	 DWORD PTR _State$[rbp], 0

; 772  :     streamsize _Count        = static_cast<streamsize>(_Traits::length(_Val));

  00055	48 8b 8d a8 01
	00 00		 mov	 rcx, QWORD PTR _Val$[rbp]
  0005c	e8 00 00 00 00	 call	 ?length@?$_Narrow_char_traits@DH@std@@SA_KQEBD@Z ; std::_Narrow_char_traits<char,int>::length
  00061	48 89 45 28	 mov	 QWORD PTR _Count$[rbp], rax

; 773  :     streamsize _Pad          = _Ostr.width() <= 0 || _Ostr.width() <= _Count ? 0 : _Ostr.width() - _Count;

  00065	48 8b 85 a0 01
	00 00		 mov	 rax, QWORD PTR _Ostr$[rbp]
  0006c	48 8b 00	 mov	 rax, QWORD PTR [rax]
  0006f	48 63 40 04	 movsxd	 rax, DWORD PTR [rax+4]
  00073	48 8b 8d a0 01
	00 00		 mov	 rcx, QWORD PTR _Ostr$[rbp]
  0007a	48 03 c8	 add	 rcx, rax
  0007d	48 8b c1	 mov	 rax, rcx
  00080	48 8b c8	 mov	 rcx, rax
  00083	ff 15 00 00 00
	00		 call	 QWORD PTR __imp_?width@ios_base@std@@QEBA_JXZ
  00089	48 85 c0	 test	 rax, rax
  0008c	7e 5b		 jle	 SHORT $LN17@operator
  0008e	48 8b 85 a0 01
	00 00		 mov	 rax, QWORD PTR _Ostr$[rbp]
  00095	48 8b 00	 mov	 rax, QWORD PTR [rax]
  00098	48 63 40 04	 movsxd	 rax, DWORD PTR [rax+4]
  0009c	48 8b 8d a0 01
	00 00		 mov	 rcx, QWORD PTR _Ostr$[rbp]
  000a3	48 03 c8	 add	 rcx, rax
  000a6	48 8b c1	 mov	 rax, rcx
  000a9	48 8b c8	 mov	 rcx, rax
  000ac	ff 15 00 00 00
	00		 call	 QWORD PTR __imp_?width@ios_base@std@@QEBA_JXZ
  000b2	48 3b 45 28	 cmp	 rax, QWORD PTR _Count$[rbp]
  000b6	7e 31		 jle	 SHORT $LN17@operator
  000b8	48 8b 85 a0 01
	00 00		 mov	 rax, QWORD PTR _Ostr$[rbp]
  000bf	48 8b 00	 mov	 rax, QWORD PTR [rax]
  000c2	48 63 40 04	 movsxd	 rax, DWORD PTR [rax+4]
  000c6	48 8b 8d a0 01
	00 00		 mov	 rcx, QWORD PTR _Ostr$[rbp]
  000cd	48 03 c8	 add	 rcx, rax
  000d0	48 8b c1	 mov	 rax, rcx
  000d3	48 8b c8	 mov	 rcx, rax
  000d6	ff 15 00 00 00
	00		 call	 QWORD PTR __imp_?width@ios_base@std@@QEBA_JXZ
  000dc	48 2b 45 28	 sub	 rax, QWORD PTR _Count$[rbp]
  000e0	48 89 85 68 01
	00 00		 mov	 QWORD PTR tv137[rbp], rax
  000e7	eb 0b		 jmp	 SHORT $LN18@operator
$LN17@operator:
  000e9	48 c7 85 68 01
	00 00 00 00 00
	00		 mov	 QWORD PTR tv137[rbp], 0
$LN18@operator:
  000f4	48 8b 85 68 01
	00 00		 mov	 rax, QWORD PTR tv137[rbp]
  000fb	48 89 45 48	 mov	 QWORD PTR _Pad$[rbp], rax

; 774  :     const typename _Myos::sentry _Ok(_Ostr);

  000ff	48 8b 95 a0 01
	00 00		 mov	 rdx, QWORD PTR _Ostr$[rbp]
  00106	48 8d 4d 68	 lea	 rcx, QWORD PTR _Ok$[rbp]
  0010a	e8 00 00 00 00	 call	 ??0sentry@?$basic_ostream@DU?$char_traits@D@std@@@std@@QEAA@AEAV12@@Z ; std::basic_ostream<char,std::char_traits<char> >::sentry::sentry
  0010f	90		 npad	 1

; 775  : 
; 776  :     if (!_Ok) {

  00110	48 8d 4d 68	 lea	 rcx, QWORD PTR _Ok$[rbp]
  00114	e8 00 00 00 00	 call	 ??Bsentry@?$basic_ostream@DU?$char_traits@D@std@@@std@@QEBA_NXZ ; std::basic_ostream<char,std::char_traits<char> >::sentry::operator bool
  00119	0f b6 c0	 movzx	 eax, al
  0011c	85 c0		 test	 eax, eax
  0011e	75 0e		 jne	 SHORT $LN8@operator

; 777  :         _State |= ios_base::badbit;

  00120	8b 45 04	 mov	 eax, DWORD PTR _State$[rbp]
  00123	83 c8 04	 or	 eax, 4
  00126	89 45 04	 mov	 DWORD PTR _State$[rbp], eax

; 778  :     } else { // state okay, insert

  00129	e9 0a 02 00 00	 jmp	 $LN9@operator
$LN8@operator:

; 779  :         _TRY_IO_BEGIN
; 780  :         if ((_Ostr.flags() & ios_base::adjustfield) != ios_base::left) {

  0012e	48 8b 85 a0 01
	00 00		 mov	 rax, QWORD PTR _Ostr$[rbp]
  00135	48 8b 00	 mov	 rax, QWORD PTR [rax]
  00138	48 63 40 04	 movsxd	 rax, DWORD PTR [rax+4]
  0013c	48 8b 8d a0 01
	00 00		 mov	 rcx, QWORD PTR _Ostr$[rbp]
  00143	48 03 c8	 add	 rcx, rax
  00146	48 8b c1	 mov	 rax, rcx
  00149	48 8b c8	 mov	 rcx, rax
  0014c	ff 15 00 00 00
	00		 call	 QWORD PTR __imp_?flags@ios_base@std@@QEBAHXZ
  00152	25 c0 01 00 00	 and	 eax, 448		; 000001c0H
  00157	83 f8 40	 cmp	 eax, 64			; 00000040H
  0015a	0f 84 a5 00 00
	00		 je	 $LN11@operator

; 781  :             for (; 0 < _Pad; --_Pad) { // pad on left

  00160	eb 0b		 jmp	 SHORT $LN4@operator
$LN2@operator:
  00162	48 8b 45 48	 mov	 rax, QWORD PTR _Pad$[rbp]
  00166	48 ff c8	 dec	 rax
  00169	48 89 45 48	 mov	 QWORD PTR _Pad$[rbp], rax
$LN4@operator:
  0016d	48 83 7d 48 00	 cmp	 QWORD PTR _Pad$[rbp], 0
  00172	0f 8e 8d 00 00
	00		 jle	 $LN11@operator

; 782  :                 if (_Traits::eq_int_type(_Traits::eof(), _Ostr.rdbuf()->sputc(_Ostr.fill()))) {

  00178	48 8b 85 a0 01
	00 00		 mov	 rax, QWORD PTR _Ostr$[rbp]
  0017f	48 8b 00	 mov	 rax, QWORD PTR [rax]
  00182	48 63 40 04	 movsxd	 rax, DWORD PTR [rax+4]
  00186	48 8b 8d a0 01
	00 00		 mov	 rcx, QWORD PTR _Ostr$[rbp]
  0018d	48 03 c8	 add	 rcx, rax
  00190	48 8b c1	 mov	 rax, rcx
  00193	48 8b c8	 mov	 rcx, rax
  00196	ff 15 00 00 00
	00		 call	 QWORD PTR __imp_?fill@?$basic_ios@DU?$char_traits@D@std@@@std@@QEBADXZ
  0019c	88 85 64 01 00
	00		 mov	 BYTE PTR tv285[rbp], al
  001a2	48 8b 8d a0 01
	00 00		 mov	 rcx, QWORD PTR _Ostr$[rbp]
  001a9	48 8b 09	 mov	 rcx, QWORD PTR [rcx]
  001ac	48 63 49 04	 movsxd	 rcx, DWORD PTR [rcx+4]
  001b0	48 8b 95 a0 01
	00 00		 mov	 rdx, QWORD PTR _Ostr$[rbp]
  001b7	48 03 d1	 add	 rdx, rcx
  001ba	48 8b ca	 mov	 rcx, rdx
  001bd	ff 15 00 00 00
	00		 call	 QWORD PTR __imp_?rdbuf@?$basic_ios@DU?$char_traits@D@std@@@std@@QEBAPEAV?$basic_streambuf@DU?$char_traits@D@std@@@2@XZ
  001c3	0f b6 8d 64 01
	00 00		 movzx	 ecx, BYTE PTR tv285[rbp]
  001ca	0f b6 d1	 movzx	 edx, cl
  001cd	48 8b c8	 mov	 rcx, rax
  001d0	ff 15 00 00 00
	00		 call	 QWORD PTR __imp_?sputc@?$basic_streambuf@DU?$char_traits@D@std@@@std@@QEAAHD@Z
  001d6	89 85 68 01 00
	00		 mov	 DWORD PTR tv139[rbp], eax
  001dc	e8 00 00 00 00	 call	 ?eof@?$_Narrow_char_traits@DH@std@@SAHXZ ; std::_Narrow_char_traits<char,int>::eof
  001e1	8b 95 68 01 00
	00		 mov	 edx, DWORD PTR tv139[rbp]
  001e7	8b c8		 mov	 ecx, eax
  001e9	e8 00 00 00 00	 call	 ?eq_int_type@?$_Narrow_char_traits@DH@std@@SA_NHH@Z ; std::_Narrow_char_traits<char,int>::eq_int_type
  001ee	0f b6 c0	 movzx	 eax, al
  001f1	85 c0		 test	 eax, eax
  001f3	74 0b		 je	 SHORT $LN12@operator

; 783  :                     _State |= ios_base::badbit; // insertion failed, quit

  001f5	8b 45 04	 mov	 eax, DWORD PTR _State$[rbp]
  001f8	83 c8 04	 or	 eax, 4
  001fb	89 45 04	 mov	 DWORD PTR _State$[rbp], eax

; 784  :                     break;

  001fe	eb 05		 jmp	 SHORT $LN11@operator
$LN12@operator:

; 785  :                 }
; 786  :             }

  00200	e9 5d ff ff ff	 jmp	 $LN2@operator
$LN11@operator:

; 787  :         }
; 788  : 
; 789  :         if (_State == ios_base::goodbit && _Ostr.rdbuf()->sputn(_Val, _Count) != _Count) {

  00205	83 7d 04 00	 cmp	 DWORD PTR _State$[rbp], 0
  00209	75 55		 jne	 SHORT $LN13@operator
  0020b	48 8b 85 a0 01
	00 00		 mov	 rax, QWORD PTR _Ostr$[rbp]
  00212	48 8b 00	 mov	 rax, QWORD PTR [rax]
  00215	48 63 40 04	 movsxd	 rax, DWORD PTR [rax+4]
  00219	48 8b 8d a0 01
	00 00		 mov	 rcx, QWORD PTR _Ostr$[rbp]
  00220	48 03 c8	 add	 rcx, rax
  00223	48 8b c1	 mov	 rax, rcx
  00226	48 8b c8	 mov	 rcx, rax
  00229	ff 15 00 00 00
	00		 call	 QWORD PTR __imp_?rdbuf@?$basic_ios@DU?$char_traits@D@std@@@std@@QEBAPEAV?$basic_streambuf@DU?$char_traits@D@std@@@2@XZ
  0022f	4c 8b 45 28	 mov	 r8, QWORD PTR _Count$[rbp]
  00233	48 8b 95 a8 01
	00 00		 mov	 rdx, QWORD PTR _Val$[rbp]
  0023a	48 8b c8	 mov	 rcx, rax
  0023d	ff 15 00 00 00
	00		 call	 QWORD PTR __imp_?sputn@?$basic_streambuf@DU?$char_traits@D@std@@@std@@QEAA_JPEBD_J@Z
  00243	48 89 85 68 01
	00 00		 mov	 QWORD PTR tv295[rbp], rax
  0024a	48 8b 45 28	 mov	 rax, QWORD PTR _Count$[rbp]
  0024e	48 39 85 68 01
	00 00		 cmp	 QWORD PTR tv295[rbp], rax
  00255	74 09		 je	 SHORT $LN13@operator

; 790  :             _State |= ios_base::badbit;

  00257	8b 45 04	 mov	 eax, DWORD PTR _State$[rbp]
  0025a	83 c8 04	 or	 eax, 4
  0025d	89 45 04	 mov	 DWORD PTR _State$[rbp], eax
$LN13@operator:

; 791  :         }
; 792  : 
; 793  :         if (_State == ios_base::goodbit) {

  00260	83 7d 04 00	 cmp	 DWORD PTR _State$[rbp], 0
  00264	0f 85 a5 00 00
	00		 jne	 $LN14@operator

; 794  :             for (; 0 < _Pad; --_Pad) { // pad on right

  0026a	eb 0b		 jmp	 SHORT $LN7@operator
$LN5@operator:
  0026c	48 8b 45 48	 mov	 rax, QWORD PTR _Pad$[rbp]
  00270	48 ff c8	 dec	 rax
  00273	48 89 45 48	 mov	 QWORD PTR _Pad$[rbp], rax
$LN7@operator:
  00277	48 83 7d 48 00	 cmp	 QWORD PTR _Pad$[rbp], 0
  0027c	0f 8e 8d 00 00
	00		 jle	 $LN14@operator

; 795  :                 if (_Traits::eq_int_type(_Traits::eof(), _Ostr.rdbuf()->sputc(_Ostr.fill()))) {

  00282	48 8b 85 a0 01
	00 00		 mov	 rax, QWORD PTR _Ostr$[rbp]
  00289	48 8b 00	 mov	 rax, QWORD PTR [rax]
  0028c	48 63 40 04	 movsxd	 rax, DWORD PTR [rax+4]
  00290	48 8b 8d a0 01
	00 00		 mov	 rcx, QWORD PTR _Ostr$[rbp]
  00297	48 03 c8	 add	 rcx, rax
  0029a	48 8b c1	 mov	 rax, rcx
  0029d	48 8b c8	 mov	 rcx, rax
  002a0	ff 15 00 00 00
	00		 call	 QWORD PTR __imp_?fill@?$basic_ios@DU?$char_traits@D@std@@@std@@QEBADXZ
  002a6	88 85 64 01 00
	00		 mov	 BYTE PTR tv283[rbp], al
  002ac	48 8b 8d a0 01
	00 00		 mov	 rcx, QWORD PTR _Ostr$[rbp]
  002b3	48 8b 09	 mov	 rcx, QWORD PTR [rcx]
  002b6	48 63 49 04	 movsxd	 rcx, DWORD PTR [rcx+4]
  002ba	48 8b 95 a0 01
	00 00		 mov	 rdx, QWORD PTR _Ostr$[rbp]
  002c1	48 03 d1	 add	 rdx, rcx
  002c4	48 8b ca	 mov	 rcx, rdx
  002c7	ff 15 00 00 00
	00		 call	 QWORD PTR __imp_?rdbuf@?$basic_ios@DU?$char_traits@D@std@@@std@@QEBAPEAV?$basic_streambuf@DU?$char_traits@D@std@@@2@XZ
  002cd	0f b6 8d 64 01
	00 00		 movzx	 ecx, BYTE PTR tv283[rbp]
  002d4	0f b6 d1	 movzx	 edx, cl
  002d7	48 8b c8	 mov	 rcx, rax
  002da	ff 15 00 00 00
	00		 call	 QWORD PTR __imp_?sputc@?$basic_streambuf@DU?$char_traits@D@std@@@std@@QEAAHD@Z
  002e0	89 85 68 01 00
	00		 mov	 DWORD PTR tv296[rbp], eax
  002e6	e8 00 00 00 00	 call	 ?eof@?$_Narrow_char_traits@DH@std@@SAHXZ ; std::_Narrow_char_traits<char,int>::eof
  002eb	8b 95 68 01 00
	00		 mov	 edx, DWORD PTR tv296[rbp]
  002f1	8b c8		 mov	 ecx, eax
  002f3	e8 00 00 00 00	 call	 ?eq_int_type@?$_Narrow_char_traits@DH@std@@SA_NHH@Z ; std::_Narrow_char_traits<char,int>::eq_int_type
  002f8	0f b6 c0	 movzx	 eax, al
  002fb	85 c0		 test	 eax, eax
  002fd	74 0b		 je	 SHORT $LN15@operator

; 796  :                     _State |= ios_base::badbit; // insertion failed, quit

  002ff	8b 45 04	 mov	 eax, DWORD PTR _State$[rbp]
  00302	83 c8 04	 or	 eax, 4
  00305	89 45 04	 mov	 DWORD PTR _State$[rbp], eax

; 797  :                     break;

  00308	eb 05		 jmp	 SHORT $LN14@operator
$LN15@operator:

; 798  :                 }
; 799  :             }

  0030a	e9 5d ff ff ff	 jmp	 $LN5@operator
$LN14@operator:

; 800  :         }
; 801  : 
; 802  :         _Ostr.width(0);

  0030f	48 8b 85 a0 01
	00 00		 mov	 rax, QWORD PTR _Ostr$[rbp]
  00316	48 8b 00	 mov	 rax, QWORD PTR [rax]
  00319	48 63 40 04	 movsxd	 rax, DWORD PTR [rax+4]
  0031d	48 8b 8d a0 01
	00 00		 mov	 rcx, QWORD PTR _Ostr$[rbp]
  00324	48 03 c8	 add	 rcx, rax
  00327	48 8b c1	 mov	 rax, rcx
  0032a	33 d2		 xor	 edx, edx
  0032c	48 8b c8	 mov	 rcx, rax
  0032f	ff 15 00 00 00
	00		 call	 QWORD PTR __imp_?width@ios_base@std@@QEAA_J_J@Z
  00335	90		 npad	 1
  00336	eb 00		 jmp	 SHORT $LN9@operator
$LN23@operator:
$LN9@operator:

; 803  :         _CATCH_IO_(ios_base, _Ostr)
; 804  :     }
; 805  : 
; 806  :     _Ostr.setstate(_State);

  00338	48 8b 85 a0 01
	00 00		 mov	 rax, QWORD PTR _Ostr$[rbp]
  0033f	48 8b 00	 mov	 rax, QWORD PTR [rax]
  00342	48 63 40 04	 movsxd	 rax, DWORD PTR [rax+4]
  00346	48 8b 8d a0 01
	00 00		 mov	 rcx, QWORD PTR _Ostr$[rbp]
  0034d	48 03 c8	 add	 rcx, rax
  00350	48 8b c1	 mov	 rax, rcx
  00353	45 33 c0	 xor	 r8d, r8d
  00356	8b 55 04	 mov	 edx, DWORD PTR _State$[rbp]
  00359	48 8b c8	 mov	 rcx, rax
  0035c	ff 15 00 00 00
	00		 call	 QWORD PTR __imp_?setstate@?$basic_ios@DU?$char_traits@D@std@@@std@@QEAAXH_N@Z

; 807  :     return _Ostr;

  00362	48 8b 85 a0 01
	00 00		 mov	 rax, QWORD PTR _Ostr$[rbp]
  00369	48 89 85 58 01
	00 00		 mov	 QWORD PTR $T4[rbp], rax
  00370	48 8d 4d 68	 lea	 rcx, QWORD PTR _Ok$[rbp]
  00374	e8 00 00 00 00	 call	 ??1sentry@?$basic_ostream@DU?$char_traits@D@std@@@std@@QEAA@XZ ; std::basic_ostream<char,std::char_traits<char> >::sentry::~sentry
  00379	48 8b 85 58 01
	00 00		 mov	 rax, QWORD PTR $T4[rbp]

; 808  : }

  00380	48 8b f8	 mov	 rdi, rax
  00383	48 8d 4d e0	 lea	 rcx, QWORD PTR [rbp-32]
  00387	48 8d 15 00 00
	00 00		 lea	 rdx, OFFSET FLAT:??$?6U?$char_traits@D@std@@@std@@YAAEAV?$basic_ostream@DU?$char_traits@D@std@@@0@AEAV10@PEBD@Z$rtcFrameData
  0038e	e8 00 00 00 00	 call	 _RTC_CheckStackVars
  00393	48 8b c7	 mov	 rax, rdi
  00396	48 8b 8d 70 01
	00 00		 mov	 rcx, QWORD PTR __$ArrayPad$[rbp]
  0039d	48 33 cd	 xor	 rcx, rbp
  003a0	e8 00 00 00 00	 call	 __security_check_cookie
  003a5	48 8d a5 88 01
	00 00		 lea	 rsp, QWORD PTR [rbp+392]
  003ac	5f		 pop	 rdi
  003ad	5d		 pop	 rbp
  003ae	c3		 ret	 0
??$?6U?$char_traits@D@std@@@std@@YAAEAV?$basic_ostream@DU?$char_traits@D@std@@@0@AEAV10@PEBD@Z ENDP ; std::operator<<<std::char_traits<char> >
_TEXT	ENDS
; Function compile flags: /Odtp /RTCsu /ZI
;	COMDAT text$x
text$x	SEGMENT
_State$ = 4
_Count$ = 40
_Pad$ = 72
_Ok$ = 104
$T4 = 344
tv285 = 356
tv283 = 356
tv296 = 360
tv295 = 360
tv139 = 360
tv137 = 360
__$ArrayPad$ = 368
_Ostr$ = 416
_Val$ = 424
?dtor$0@?0???$?6U?$char_traits@D@std@@@std@@YAAEAV?$basic_ostream@DU?$char_traits@D@std@@@0@AEAV10@PEBD@Z@4HA PROC ; `std::operator<<<std::char_traits<char> >'::`1'::dtor$0
  00000	48 89 4c 24 08	 mov	 QWORD PTR [rsp+8], rcx
  00005	48 89 54 24 10	 mov	 QWORD PTR [rsp+16], rdx
  0000a	55		 push	 rbp
  0000b	57		 push	 rdi
  0000c	48 83 ec 28	 sub	 rsp, 40			; 00000028H
  00010	48 8d 6a 20	 lea	 rbp, QWORD PTR [rdx+32]
  00014	48 8d 4d 68	 lea	 rcx, QWORD PTR _Ok$[rbp]
  00018	e8 00 00 00 00	 call	 ??1sentry@?$basic_ostream@DU?$char_traits@D@std@@@std@@QEAA@XZ ; std::basic_ostream<char,std::char_traits<char> >::sentry::~sentry
  0001d	48 83 c4 28	 add	 rsp, 40			; 00000028H
  00021	5f		 pop	 rdi
  00022	5d		 pop	 rbp
  00023	c3		 ret	 0
?dtor$0@?0???$?6U?$char_traits@D@std@@@std@@YAAEAV?$basic_ostream@DU?$char_traits@D@std@@@0@AEAV10@PEBD@Z@4HA ENDP ; `std::operator<<<std::char_traits<char> >'::`1'::dtor$0
text$x	ENDS
; Function compile flags: /Odtp /RTCsu /ZI
;	COMDAT text$x
text$x	SEGMENT
_State$ = 4
_Count$ = 40
_Pad$ = 72
_Ok$ = 104
$T4 = 344
tv285 = 356
tv283 = 356
tv296 = 360
tv295 = 360
tv139 = 360
tv137 = 360
__$ArrayPad$ = 368
_Ostr$ = 416
_Val$ = 424
?catch$1@?0???$?6U?$char_traits@D@std@@@std@@YAAEAV?$basic_ostream@DU?$char_traits@D@std@@@0@AEAV10@PEBD@Z@4HA PROC ; `std::operator<<<std::char_traits<char> >'::`1'::catch$1

; 803  :         _CATCH_IO_(ios_base, _Ostr)

  00000	48 89 4c 24 08	 mov	 QWORD PTR [rsp+8], rcx
  00005	48 89 54 24 10	 mov	 QWORD PTR [rsp+16], rdx
  0000a	55		 push	 rbp
  0000b	57		 push	 rdi
  0000c	48 83 ec 28	 sub	 rsp, 40			; 00000028H
  00010	48 8d 6a 20	 lea	 rbp, QWORD PTR [rdx+32]
__catch$??$?6U?$char_traits@D@std@@@std@@YAAEAV?$basic_ostream@DU?$char_traits@D@std@@@0@AEAV10@PEBD@Z$0:
  00014	48 8b 85 a0 01
	00 00		 mov	 rax, QWORD PTR _Ostr$[rbp]
  0001b	48 8b 00	 mov	 rax, QWORD PTR [rax]
  0001e	48 63 40 04	 movsxd	 rax, DWORD PTR [rax+4]
  00022	48 8b 8d a0 01
	00 00		 mov	 rcx, QWORD PTR _Ostr$[rbp]
  00029	48 03 c8	 add	 rcx, rax
  0002c	48 8b c1	 mov	 rax, rcx
  0002f	41 b0 01	 mov	 r8b, 1
  00032	ba 04 00 00 00	 mov	 edx, 4
  00037	48 8b c8	 mov	 rcx, rax
  0003a	ff 15 00 00 00
	00		 call	 QWORD PTR __imp_?setstate@?$basic_ios@DU?$char_traits@D@std@@@std@@QEAAXH_N@Z
  00040	90		 npad	 1
  00041	48 8d 05 00 00
	00 00		 lea	 rax, $LN23@catch$1
  00048	48 83 c4 28	 add	 rsp, 40			; 00000028H
  0004c	5f		 pop	 rdi
  0004d	5d		 pop	 rbp
  0004e	c3		 ret	 0
  0004f	cc		 int	 3
?catch$1@?0???$?6U?$char_traits@D@std@@@std@@YAAEAV?$basic_ostream@DU?$char_traits@D@std@@@0@AEAV10@PEBD@Z@4HA ENDP ; `std::operator<<<std::char_traits<char> >'::`1'::catch$1
text$x	ENDS
; Function compile flags: /Odtp /RTCsu /ZI
; File E:\2 \\_1\calendar01\Laba_1\main.cpp
;	COMDAT main
_TEXT	SEGMENT
n$ = 4
day$ = 36
month$ = 68
year$ = 100
iday$ = 132
imonth$ = 164
iyear$ = 196
choice$ = 228
tv380 = 436
tv279 = 436
tv174 = 436
__$ArrayPad$ = 440
main	PROC						; COMDAT

; 9    : int main() {

$LN68:
  00000	40 55		 push	 rbp
  00002	57		 push	 rdi
  00003	48 81 ec f8 01
	00 00		 sub	 rsp, 504		; 000001f8H
  0000a	48 8d 6c 24 30	 lea	 rbp, QWORD PTR [rsp+48]
  0000f	48 8d 7c 24 30	 lea	 rdi, QWORD PTR [rsp+48]
  00014	b9 42 00 00 00	 mov	 ecx, 66			; 00000042H
  00019	b8 cc cc cc cc	 mov	 eax, -858993460		; ccccccccH
  0001e	f3 ab		 rep stosd
  00020	48 8b 05 00 00
	00 00		 mov	 rax, QWORD PTR __security_cookie
  00027	48 33 c5	 xor	 rax, rbp
  0002a	48 89 85 b8 01
	00 00		 mov	 QWORD PTR __$ArrayPad$[rbp], rax
  00031	48 8d 0d 00 00
	00 00		 lea	 rcx, OFFSET FLAT:__7D9BF697_main@cpp
  00038	e8 00 00 00 00	 call	 __CheckForDebuggerJustMyCode

; 10   : 	setlocale(LC_ALL, "ru");

  0003d	48 8d 15 00 00
	00 00		 lea	 rdx, OFFSET FLAT:??_C@_02FIDBHGA@ru@
  00044	33 c9		 xor	 ecx, ecx
  00046	ff 15 00 00 00
	00		 call	 QWORD PTR __imp_setlocale

; 11   : 
; 12   : 	unsigned int n, day, month, year, iday, imonth, iyear, choice;
; 13   : 
; 14   : 	cout << " :" << endl;

  0004c	48 8d 15 00 00
	00 00		 lea	 rdx, OFFSET FLAT:??_C@_0BD@JGNLEDKD@?B?$PL?a?e?p?h?r?e?5?d?e?i?q?r?b?h?e?3@
  00053	48 8b 0d 00 00
	00 00		 mov	 rcx, QWORD PTR __imp_?cout@std@@3V?$basic_ostream@DU?$char_traits@D@std@@@1@A
  0005a	e8 00 00 00 00	 call	 ??$?6U?$char_traits@D@std@@@std@@YAAEAV?$basic_ostream@DU?$char_traits@D@std@@@0@AEAV10@PEBD@Z ; std::operator<<<std::char_traits<char> >
  0005f	48 8d 15 00 00
	00 00		 lea	 rdx, OFFSET FLAT:??$endl@DU?$char_traits@D@std@@@std@@YAAEAV?$basic_ostream@DU?$char_traits@D@std@@@0@AEAV10@@Z ; std::endl<char,std::char_traits<char> >
  00066	48 8b c8	 mov	 rcx, rax
  00069	ff 15 00 00 00
	00		 call	 QWORD PTR __imp_??6?$basic_ostream@DU?$char_traits@D@std@@@std@@QEAAAEAV01@P6AAEAV01@AEAV01@@Z@Z

; 15   : 	cout << "1. ,     ." << endl;

  0006f	48 8d 15 00 00
	00 00		 lea	 rdx, OFFSET FLAT:??_C@_0DF@NMBNDOBM@1?4?5?N?o?p?e?d?e?k?h?r?$PM?0?5?$PP?b?k?$PP?e?r?q?$PP?5?k?h?5?b?b?e?d@
  00076	48 8b 0d 00 00
	00 00		 mov	 rcx, QWORD PTR __imp_?cout@std@@3V?$basic_ostream@DU?$char_traits@D@std@@@1@A
  0007d	e8 00 00 00 00	 call	 ??$?6U?$char_traits@D@std@@@std@@YAAEAV?$basic_ostream@DU?$char_traits@D@std@@@0@AEAV10@PEBD@Z ; std::operator<<<std::char_traits<char> >
  00082	48 8d 15 00 00
	00 00		 lea	 rdx, OFFSET FLAT:??$endl@DU?$char_traits@D@std@@@std@@YAAEAV?$basic_ostream@DU?$char_traits@D@std@@@0@AEAV10@@Z ; std::endl<char,std::char_traits<char> >
  00089	48 8b c8	 mov	 rcx, rax
  0008c	ff 15 00 00 00
	00		 call	 QWORD PTR __imp_??6?$basic_ostream@DU?$char_traits@D@std@@@std@@QEAAAEAV01@P6AAEAV01@AEAV01@@Z@Z

; 16   : 	cout << "2.       ." << endl;

  00092	48 8d 15 00 00
	00 00		 lea	 rdx, OFFSET FLAT:??_C@_0DF@NJGBAAJC@2?4?5?B?$PL?w?h?q?k?h?r?$PM?5?o?n?p?$PP?d?j?n?b?$PL?i?5?m?n?l?e?p?5?b@
  00099	48 8b 0d 00 00
	00 00		 mov	 rcx, QWORD PTR __imp_?cout@std@@3V?$basic_ostream@DU?$char_traits@D@std@@@1@A
  000a0	e8 00 00 00 00	 call	 ??$?6U?$char_traits@D@std@@@std@@YAAEAV?$basic_ostream@DU?$char_traits@D@std@@@0@AEAV10@PEBD@Z ; std::operator<<<std::char_traits<char> >
  000a5	48 8d 15 00 00
	00 00		 lea	 rdx, OFFSET FLAT:??$endl@DU?$char_traits@D@std@@@std@@YAAEAV?$basic_ostream@DU?$char_traits@D@std@@@0@AEAV10@@Z ; std::endl<char,std::char_traits<char> >
  000ac	48 8b c8	 mov	 rcx, rax
  000af	ff 15 00 00 00
	00		 call	 QWORD PTR __imp_??6?$basic_ostream@DU?$char_traits@D@std@@@std@@QEAAAEAV01@P6AAEAV01@AEAV01@@Z@Z

; 17   : 	cout << "3. ,        ." << endl;

  000b5	48 8d 15 00 00
	00 00		 lea	 rdx, OFFSET FLAT:??_C@_0EH@IIEELMOK@3?4?5?B?$PL?w?h?q?k?h?r?$PM?0?5?q?j?n?k?$PM?j?n?5?d?m?e?i?5?n?q?r?$OA@
  000bc	48 8b 0d 00 00
	00 00		 mov	 rcx, QWORD PTR __imp_?cout@std@@3V?$basic_ostream@DU?$char_traits@D@std@@@1@A
  000c3	e8 00 00 00 00	 call	 ??$?6U?$char_traits@D@std@@@std@@YAAEAV?$basic_ostream@DU?$char_traits@D@std@@@0@AEAV10@PEBD@Z ; std::operator<<<std::char_traits<char> >
  000c8	48 8d 15 00 00
	00 00		 lea	 rdx, OFFSET FLAT:??$endl@DU?$char_traits@D@std@@@std@@YAAEAV?$basic_ostream@DU?$char_traits@D@std@@@0@AEAV10@@Z ; std::endl<char,std::char_traits<char> >
  000cf	48 8b c8	 mov	 rcx, rax
  000d2	ff 15 00 00 00
	00		 call	 QWORD PTR __imp_??6?$basic_ostream@DU?$char_traits@D@std@@@std@@QEAAAEAV01@P6AAEAV01@AEAV01@@Z@Z

; 18   : 	cout << " : "; cin >> n;

  000d8	48 8d 15 00 00
	00 00		 lea	 rdx, OFFSET FLAT:??_C@_0M@EJIEDNJD@?B?$OA?x?5?b?$PL?a?n?p?3?5@
  000df	48 8b 0d 00 00
	00 00		 mov	 rcx, QWORD PTR __imp_?cout@std@@3V?$basic_ostream@DU?$char_traits@D@std@@@1@A
  000e6	e8 00 00 00 00	 call	 ??$?6U?$char_traits@D@std@@@std@@YAAEAV?$basic_ostream@DU?$char_traits@D@std@@@0@AEAV10@PEBD@Z ; std::operator<<<std::char_traits<char> >
  000eb	48 8d 55 04	 lea	 rdx, QWORD PTR n$[rbp]
  000ef	48 8b 0d 00 00
	00 00		 mov	 rcx, QWORD PTR __imp_?cin@std@@3V?$basic_istream@DU?$char_traits@D@std@@@1@A
  000f6	ff 15 00 00 00
	00		 call	 QWORD PTR __imp_??5?$basic_istream@DU?$char_traits@D@std@@@std@@QEAAAEAV01@AEAI@Z

; 19   : 
; 20   : 	if (n < 1 || n > 3) {

  000fc	83 7d 04 01	 cmp	 DWORD PTR n$[rbp], 1
  00100	72 06		 jb	 SHORT $LN23@main
  00102	83 7d 04 03	 cmp	 DWORD PTR n$[rbp], 3
  00106	76 28		 jbe	 SHORT $LN22@main
$LN23@main:

; 21   : 		cout << "!    ." << endl;

  00108	48 8d 15 00 00
	00 00		 lea	 rdx, OFFSET FLAT:??_C@_0CK@HALLMLDE@?N?x?h?a?j?$OA?$CB?5?B?b?e?d?$LI?m?5?m?e?b?e?p?m?$PL?i?5?b?$OA?p?h?$OA?m?r@
  0010f	48 8b 0d 00 00
	00 00		 mov	 rcx, QWORD PTR __imp_?cout@std@@3V?$basic_ostream@DU?$char_traits@D@std@@@1@A
  00116	e8 00 00 00 00	 call	 ??$?6U?$char_traits@D@std@@@std@@YAAEAV?$basic_ostream@DU?$char_traits@D@std@@@0@AEAV10@PEBD@Z ; std::operator<<<std::char_traits<char> >
  0011b	48 8d 15 00 00
	00 00		 lea	 rdx, OFFSET FLAT:??$endl@DU?$char_traits@D@std@@@std@@YAAEAV?$basic_ostream@DU?$char_traits@D@std@@@0@AEAV10@@Z ; std::endl<char,std::char_traits<char> >
  00122	48 8b c8	 mov	 rcx, rax
  00125	ff 15 00 00 00
	00		 call	 QWORD PTR __imp_??6?$basic_ostream@DU?$char_traits@D@std@@@std@@QEAAAEAV01@P6AAEAV01@AEAV01@@Z@Z

; 22   : 		main();

  0012b	e8 00 00 00 00	 call	 main
$LN22@main:

; 23   : 	}
; 24   : 
; 25   : 	cout << "!        : " << endl;

  00130	48 8d 15 00 00
	00 00		 lea	 rdx, OFFSET FLAT:??_C@_0DE@EBINKEND@?N?r?k?h?w?m?n?$CB?5?R?e?o?e?p?$PM?5?b?b?e?d?h?r?e?5?d?$OA?r?s?5?b?5@
  00137	48 8b 0d 00 00
	00 00		 mov	 rcx, QWORD PTR __imp_?cout@std@@3V?$basic_ostream@DU?$char_traits@D@std@@@1@A
  0013e	e8 00 00 00 00	 call	 ??$?6U?$char_traits@D@std@@@std@@YAAEAV?$basic_ostream@DU?$char_traits@D@std@@@0@AEAV10@PEBD@Z ; std::operator<<<std::char_traits<char> >
  00143	48 8d 15 00 00
	00 00		 lea	 rdx, OFFSET FLAT:??$endl@DU?$char_traits@D@std@@@std@@YAAEAV?$basic_ostream@DU?$char_traits@D@std@@@0@AEAV10@@Z ; std::endl<char,std::char_traits<char> >
  0014a	48 8b c8	 mov	 rcx, rax
  0014d	ff 15 00 00 00
	00		 call	 QWORD PTR __imp_??6?$basic_ostream@DU?$char_traits@D@std@@@std@@QEAAAEAV01@P6AAEAV01@AEAV01@@Z@Z

; 26   : 	cin >> day >> month >> year; cout << endl;

  00153	48 8d 55 24	 lea	 rdx, QWORD PTR day$[rbp]
  00157	48 8b 0d 00 00
	00 00		 mov	 rcx, QWORD PTR __imp_?cin@std@@3V?$basic_istream@DU?$char_traits@D@std@@@1@A
  0015e	ff 15 00 00 00
	00		 call	 QWORD PTR __imp_??5?$basic_istream@DU?$char_traits@D@std@@@std@@QEAAAEAV01@AEAI@Z
  00164	48 8d 55 44	 lea	 rdx, QWORD PTR month$[rbp]
  00168	48 8b c8	 mov	 rcx, rax
  0016b	ff 15 00 00 00
	00		 call	 QWORD PTR __imp_??5?$basic_istream@DU?$char_traits@D@std@@@std@@QEAAAEAV01@AEAI@Z
  00171	48 8d 55 64	 lea	 rdx, QWORD PTR year$[rbp]
  00175	48 8b c8	 mov	 rcx, rax
  00178	ff 15 00 00 00
	00		 call	 QWORD PTR __imp_??5?$basic_istream@DU?$char_traits@D@std@@@std@@QEAAAEAV01@AEAI@Z
  0017e	48 8d 15 00 00
	00 00		 lea	 rdx, OFFSET FLAT:??$endl@DU?$char_traits@D@std@@@std@@YAAEAV?$basic_ostream@DU?$char_traits@D@std@@@0@AEAV10@@Z ; std::endl<char,std::char_traits<char> >
  00185	48 8b 0d 00 00
	00 00		 mov	 rcx, QWORD PTR __imp_?cout@std@@3V?$basic_ostream@DU?$char_traits@D@std@@@1@A
  0018c	ff 15 00 00 00
	00		 call	 QWORD PTR __imp_??6?$basic_ostream@DU?$char_traits@D@std@@@std@@QEAAAEAV01@P6AAEAV01@AEAV01@@Z@Z

; 27   : 	if (day > 31 || day < 1 || month > 12 || month < 1 || year > 9999 || year < 1) {

  00192	83 7d 24 1f	 cmp	 DWORD PTR day$[rbp], 31
  00196	77 25		 ja	 SHORT $LN25@main
  00198	83 7d 24 01	 cmp	 DWORD PTR day$[rbp], 1
  0019c	72 1f		 jb	 SHORT $LN25@main
  0019e	83 7d 44 0c	 cmp	 DWORD PTR month$[rbp], 12
  001a2	77 19		 ja	 SHORT $LN25@main
  001a4	83 7d 44 01	 cmp	 DWORD PTR month$[rbp], 1
  001a8	72 13		 jb	 SHORT $LN25@main
  001aa	81 7d 64 0f 27
	00 00		 cmp	 DWORD PTR year$[rbp], 9999 ; 0000270fH
  001b1	77 0a		 ja	 SHORT $LN25@main
  001b3	83 7d 64 01	 cmp	 DWORD PTR year$[rbp], 1
  001b7	0f 83 a9 00 00
	00		 jae	 $LN24@main
$LN25@main:
$LN62@main:
$LN61@main:
$LN60@main:
$LN59@main:
$LN58@main:
$LN4@main:

; 28   : 		do {
; 29   : 			cout << "!    ." << endl << endl;

  001bd	48 8d 15 00 00
	00 00		 lea	 rdx, OFFSET FLAT:??_C@_0BN@MDBELKLM@?N?x?h?a?j?$OA?$CB?5?B?e?d?h?r?e?5?d?$OA?r?s?5?e?y?e?5?p?$OA?g?4@
  001c4	48 8b 0d 00 00
	00 00		 mov	 rcx, QWORD PTR __imp_?cout@std@@3V?$basic_ostream@DU?$char_traits@D@std@@@1@A
  001cb	e8 00 00 00 00	 call	 ??$?6U?$char_traits@D@std@@@std@@YAAEAV?$basic_ostream@DU?$char_traits@D@std@@@0@AEAV10@PEBD@Z ; std::operator<<<std::char_traits<char> >
  001d0	48 8d 15 00 00
	00 00		 lea	 rdx, OFFSET FLAT:??$endl@DU?$char_traits@D@std@@@std@@YAAEAV?$basic_ostream@DU?$char_traits@D@std@@@0@AEAV10@@Z ; std::endl<char,std::char_traits<char> >
  001d7	48 8b c8	 mov	 rcx, rax
  001da	ff 15 00 00 00
	00		 call	 QWORD PTR __imp_??6?$basic_ostream@DU?$char_traits@D@std@@@std@@QEAAAEAV01@P6AAEAV01@AEAV01@@Z@Z
  001e0	48 8d 15 00 00
	00 00		 lea	 rdx, OFFSET FLAT:??$endl@DU?$char_traits@D@std@@@std@@YAAEAV?$basic_ostream@DU?$char_traits@D@std@@@0@AEAV10@@Z ; std::endl<char,std::char_traits<char> >
  001e7	48 8b c8	 mov	 rcx, rax
  001ea	ff 15 00 00 00
	00		 call	 QWORD PTR __imp_??6?$basic_ostream@DU?$char_traits@D@std@@@std@@QEAAAEAV01@P6AAEAV01@AEAV01@@Z@Z

; 30   : 			cin >> day >> month >> year; cout << endl;

  001f0	48 8d 55 24	 lea	 rdx, QWORD PTR day$[rbp]
  001f4	48 8b 0d 00 00
	00 00		 mov	 rcx, QWORD PTR __imp_?cin@std@@3V?$basic_istream@DU?$char_traits@D@std@@@1@A
  001fb	ff 15 00 00 00
	00		 call	 QWORD PTR __imp_??5?$basic_istream@DU?$char_traits@D@std@@@std@@QEAAAEAV01@AEAI@Z
  00201	48 8d 55 44	 lea	 rdx, QWORD PTR month$[rbp]
  00205	48 8b c8	 mov	 rcx, rax
  00208	ff 15 00 00 00
	00		 call	 QWORD PTR __imp_??5?$basic_istream@DU?$char_traits@D@std@@@std@@QEAAAEAV01@AEAI@Z
  0020e	48 8d 55 64	 lea	 rdx, QWORD PTR year$[rbp]
  00212	48 8b c8	 mov	 rcx, rax
  00215	ff 15 00 00 00
	00		 call	 QWORD PTR __imp_??5?$basic_istream@DU?$char_traits@D@std@@@std@@QEAAAEAV01@AEAI@Z
  0021b	48 8d 15 00 00
	00 00		 lea	 rdx, OFFSET FLAT:??$endl@DU?$char_traits@D@std@@@std@@YAAEAV?$basic_ostream@DU?$char_traits@D@std@@@0@AEAV10@@Z ; std::endl<char,std::char_traits<char> >
  00222	48 8b 0d 00 00
	00 00		 mov	 rcx, QWORD PTR __imp_?cout@std@@3V?$basic_ostream@DU?$char_traits@D@std@@@1@A
  00229	ff 15 00 00 00
	00		 call	 QWORD PTR __imp_??6?$basic_ostream@DU?$char_traits@D@std@@@std@@QEAAAEAV01@P6AAEAV01@AEAV01@@Z@Z

; 31   : 		} while (day > 31 || day < 1 || month > 12 || month < 1 || year > 9999 || year < 1);

  0022f	83 7d 24 1f	 cmp	 DWORD PTR day$[rbp], 31
  00233	77 88		 ja	 SHORT $LN4@main
  00235	83 7d 24 01	 cmp	 DWORD PTR day$[rbp], 1
  00239	72 82		 jb	 SHORT $LN58@main
  0023b	83 7d 44 0c	 cmp	 DWORD PTR month$[rbp], 12
  0023f	0f 87 78 ff ff
	ff		 ja	 $LN59@main
  00245	83 7d 44 01	 cmp	 DWORD PTR month$[rbp], 1
  00249	0f 82 6e ff ff
	ff		 jb	 $LN60@main
  0024f	81 7d 64 0f 27
	00 00		 cmp	 DWORD PTR year$[rbp], 9999 ; 0000270fH
  00256	0f 87 61 ff ff
	ff		 ja	 $LN61@main
  0025c	83 7d 64 01	 cmp	 DWORD PTR year$[rbp], 1
  00260	0f 82 57 ff ff
	ff		 jb	 $LN62@main
$LN24@main:

; 32   : 	}
; 33   : 
; 34   : 	switch (n) {

  00266	8b 45 04	 mov	 eax, DWORD PTR n$[rbp]
  00269	89 85 b4 01 00
	00		 mov	 DWORD PTR tv174[rbp], eax
  0026f	83 bd b4 01 00
	00 01		 cmp	 DWORD PTR tv174[rbp], 1
  00276	74 1f		 je	 SHORT $LN26@main
  00278	83 bd b4 01 00
	00 02		 cmp	 DWORD PTR tv174[rbp], 2
  0027f	0f 84 24 03 00
	00		 je	 $LN41@main
  00285	83 bd b4 01 00
	00 03		 cmp	 DWORD PTR tv174[rbp], 3
  0028c	0f 84 c1 04 00
	00		 je	 $LN48@main
  00292	e9 f6 07 00 00	 jmp	 $LN5@main
$LN26@main:

; 35   : 	case 1: {
; 36   : 		if (leapYear(year)) {

  00297	8b 4d 64	 mov	 ecx, DWORD PTR year$[rbp]
  0029a	e8 00 00 00 00	 call	 ?leapYear@@YAHH@Z	; leapYear
  0029f	85 c0		 test	 eax, eax
  002a1	0f 84 81 01 00
	00		 je	 $LN27@main

; 37   : 			cout << year << "   ." << endl << endl;

  002a7	8b 55 64	 mov	 edx, DWORD PTR year$[rbp]
  002aa	48 8b 0d 00 00
	00 00		 mov	 rcx, QWORD PTR __imp_?cout@std@@3V?$basic_ostream@DU?$char_traits@D@std@@@1@A
  002b1	ff 15 00 00 00
	00		 call	 QWORD PTR __imp_??6?$basic_ostream@DU?$char_traits@D@std@@@std@@QEAAAEAV01@I@Z
  002b7	48 8d 15 00 00
	00 00		 lea	 rdx, OFFSET FLAT:??_C@_0BK@OICKCOPF@?5?c?n?d?5?$PP?b?k?$PP?e?r?q?$PP?5?b?h?q?n?j?n?q?m?$PL?l?4@
  002be	48 8b c8	 mov	 rcx, rax
  002c1	e8 00 00 00 00	 call	 ??$?6U?$char_traits@D@std@@@std@@YAAEAV?$basic_ostream@DU?$char_traits@D@std@@@0@AEAV10@PEBD@Z ; std::operator<<<std::char_traits<char> >
  002c6	48 8d 15 00 00
	00 00		 lea	 rdx, OFFSET FLAT:??$endl@DU?$char_traits@D@std@@@std@@YAAEAV?$basic_ostream@DU?$char_traits@D@std@@@0@AEAV10@@Z ; std::endl<char,std::char_traits<char> >
  002cd	48 8b c8	 mov	 rcx, rax
  002d0	ff 15 00 00 00
	00		 call	 QWORD PTR __imp_??6?$basic_ostream@DU?$char_traits@D@std@@@std@@QEAAAEAV01@P6AAEAV01@AEAV01@@Z@Z
  002d6	48 8d 15 00 00
	00 00		 lea	 rdx, OFFSET FLAT:??$endl@DU?$char_traits@D@std@@@std@@YAAEAV?$basic_ostream@DU?$char_traits@D@std@@@0@AEAV10@@Z ; std::endl<char,std::char_traits<char> >
  002dd	48 8b c8	 mov	 rcx, rax
  002e0	ff 15 00 00 00
	00		 call	 QWORD PTR __imp_??6?$basic_ostream@DU?$char_traits@D@std@@@std@@QEAAAEAV01@P6AAEAV01@AEAV01@@Z@Z

; 38   : 
; 39   : 			cout << " ?   -  1,   - 0" << endl;

  002e6	48 8d 15 00 00
	00 00		 lea	 rdx, OFFSET FLAT:??_C@_0DF@PHNOKLHG@?U?n?r?h?r?e?5?o?p?n?d?n?k?f?h?r?$PM?$DP?5?E?q?k?h?5?d?$OA?5?9?5?b?b@
  002ed	48 8b 0d 00 00
	00 00		 mov	 rcx, QWORD PTR __imp_?cout@std@@3V?$basic_ostream@DU?$char_traits@D@std@@@1@A
  002f4	e8 00 00 00 00	 call	 ??$?6U?$char_traits@D@std@@@std@@YAAEAV?$basic_ostream@DU?$char_traits@D@std@@@0@AEAV10@PEBD@Z ; std::operator<<<std::char_traits<char> >
  002f9	48 8d 15 00 00
	00 00		 lea	 rdx, OFFSET FLAT:??$endl@DU?$char_traits@D@std@@@std@@YAAEAV?$basic_ostream@DU?$char_traits@D@std@@@0@AEAV10@@Z ; std::endl<char,std::char_traits<char> >
  00300	48 8b c8	 mov	 rcx, rax
  00303	ff 15 00 00 00
	00		 call	 QWORD PTR __imp_??6?$basic_ostream@DU?$char_traits@D@std@@@std@@QEAAAEAV01@P6AAEAV01@AEAV01@@Z@Z

; 40   : 			cout << " : "; cin >> choice; cout << endl;

  00309	48 8d 15 00 00
	00 00		 lea	 rdx, OFFSET FLAT:??_C@_0M@EJIEDNJD@?B?$OA?x?5?b?$PL?a?n?p?3?5@
  00310	48 8b 0d 00 00
	00 00		 mov	 rcx, QWORD PTR __imp_?cout@std@@3V?$basic_ostream@DU?$char_traits@D@std@@@1@A
  00317	e8 00 00 00 00	 call	 ??$?6U?$char_traits@D@std@@@std@@YAAEAV?$basic_ostream@DU?$char_traits@D@std@@@0@AEAV10@PEBD@Z ; std::operator<<<std::char_traits<char> >
  0031c	48 8d 95 e4 00
	00 00		 lea	 rdx, QWORD PTR choice$[rbp]
  00323	48 8b 0d 00 00
	00 00		 mov	 rcx, QWORD PTR __imp_?cin@std@@3V?$basic_istream@DU?$char_traits@D@std@@@1@A
  0032a	ff 15 00 00 00
	00		 call	 QWORD PTR __imp_??5?$basic_istream@DU?$char_traits@D@std@@@std@@QEAAAEAV01@AEAI@Z
  00330	48 8d 15 00 00
	00 00		 lea	 rdx, OFFSET FLAT:??$endl@DU?$char_traits@D@std@@@std@@YAAEAV?$basic_ostream@DU?$char_traits@D@std@@@0@AEAV10@@Z ; std::endl<char,std::char_traits<char> >
  00337	48 8b 0d 00 00
	00 00		 mov	 rcx, QWORD PTR __imp_?cout@std@@3V?$basic_ostream@DU?$char_traits@D@std@@@1@A
  0033e	ff 15 00 00 00
	00		 call	 QWORD PTR __imp_??6?$basic_ostream@DU?$char_traits@D@std@@@std@@QEAAAEAV01@P6AAEAV01@AEAV01@@Z@Z

; 41   : 			if (choice == 1) {

  00344	83 bd e4 00 00
	00 01		 cmp	 DWORD PTR choice$[rbp], 1
  0034b	75 0a		 jne	 SHORT $LN29@main

; 42   : 				main();

  0034d	e8 00 00 00 00	 call	 main

; 43   : 			}

  00352	e9 cc 00 00 00	 jmp	 $LN30@main
$LN29@main:

; 44   : 			else if (choice == 0) {

  00357	83 bd e4 00 00
	00 00		 cmp	 DWORD PTR choice$[rbp], 0
  0035e	75 0d		 jne	 SHORT $LN31@main

; 45   : 				exit(0);

  00360	33 c9		 xor	 ecx, ecx
  00362	ff 15 00 00 00
	00		 call	 QWORD PTR __imp_exit

; 46   : 			}

  00368	e9 b6 00 00 00	 jmp	 $LN32@main
$LN31@main:
$LN9@main:

; 47   : 			else {
; 48   : 				do {
; 49   : 					cout << "  !" << endl << endl;

  0036d	48 8d 15 00 00
	00 00		 lea	 rdx, OFFSET FLAT:??_C@_0BK@HEEPGOAC@?B?b?e?d?h?r?e?5?j?n?p?p?e?j?r?m?n?e?5?w?h?q?k?n?$CB@
  00374	48 8b 0d 00 00
	00 00		 mov	 rcx, QWORD PTR __imp_?cout@std@@3V?$basic_ostream@DU?$char_traits@D@std@@@1@A
  0037b	e8 00 00 00 00	 call	 ??$?6U?$char_traits@D@std@@@std@@YAAEAV?$basic_ostream@DU?$char_traits@D@std@@@0@AEAV10@PEBD@Z ; std::operator<<<std::char_traits<char> >
  00380	48 8d 15 00 00
	00 00		 lea	 rdx, OFFSET FLAT:??$endl@DU?$char_traits@D@std@@@std@@YAAEAV?$basic_ostream@DU?$char_traits@D@std@@@0@AEAV10@@Z ; std::endl<char,std::char_traits<char> >
  00387	48 8b c8	 mov	 rcx, rax
  0038a	ff 15 00 00 00
	00		 call	 QWORD PTR __imp_??6?$basic_ostream@DU?$char_traits@D@std@@@std@@QEAAAEAV01@P6AAEAV01@AEAV01@@Z@Z
  00390	48 8d 15 00 00
	00 00		 lea	 rdx, OFFSET FLAT:??$endl@DU?$char_traits@D@std@@@std@@YAAEAV?$basic_ostream@DU?$char_traits@D@std@@@0@AEAV10@@Z ; std::endl<char,std::char_traits<char> >
  00397	48 8b c8	 mov	 rcx, rax
  0039a	ff 15 00 00 00
	00		 call	 QWORD PTR __imp_??6?$basic_ostream@DU?$char_traits@D@std@@@std@@QEAAAEAV01@P6AAEAV01@AEAV01@@Z@Z

; 50   : 					cout << " ?   -  1,   - 0" << endl;

  003a0	48 8d 15 00 00
	00 00		 lea	 rdx, OFFSET FLAT:??_C@_0DF@PHNOKLHG@?U?n?r?h?r?e?5?o?p?n?d?n?k?f?h?r?$PM?$DP?5?E?q?k?h?5?d?$OA?5?9?5?b?b@
  003a7	48 8b 0d 00 00
	00 00		 mov	 rcx, QWORD PTR __imp_?cout@std@@3V?$basic_ostream@DU?$char_traits@D@std@@@1@A
  003ae	e8 00 00 00 00	 call	 ??$?6U?$char_traits@D@std@@@std@@YAAEAV?$basic_ostream@DU?$char_traits@D@std@@@0@AEAV10@PEBD@Z ; std::operator<<<std::char_traits<char> >
  003b3	48 8d 15 00 00
	00 00		 lea	 rdx, OFFSET FLAT:??$endl@DU?$char_traits@D@std@@@std@@YAAEAV?$basic_ostream@DU?$char_traits@D@std@@@0@AEAV10@@Z ; std::endl<char,std::char_traits<char> >
  003ba	48 8b c8	 mov	 rcx, rax
  003bd	ff 15 00 00 00
	00		 call	 QWORD PTR __imp_??6?$basic_ostream@DU?$char_traits@D@std@@@std@@QEAAAEAV01@P6AAEAV01@AEAV01@@Z@Z

; 51   : 					cout << " : "; cin >> choice; cout << endl;

  003c3	48 8d 15 00 00
	00 00		 lea	 rdx, OFFSET FLAT:??_C@_0M@EJIEDNJD@?B?$OA?x?5?b?$PL?a?n?p?3?5@
  003ca	48 8b 0d 00 00
	00 00		 mov	 rcx, QWORD PTR __imp_?cout@std@@3V?$basic_ostream@DU?$char_traits@D@std@@@1@A
  003d1	e8 00 00 00 00	 call	 ??$?6U?$char_traits@D@std@@@std@@YAAEAV?$basic_ostream@DU?$char_traits@D@std@@@0@AEAV10@PEBD@Z ; std::operator<<<std::char_traits<char> >
  003d6	48 8d 95 e4 00
	00 00		 lea	 rdx, QWORD PTR choice$[rbp]
  003dd	48 8b 0d 00 00
	00 00		 mov	 rcx, QWORD PTR __imp_?cin@std@@3V?$basic_istream@DU?$char_traits@D@std@@@1@A
  003e4	ff 15 00 00 00
	00		 call	 QWORD PTR __imp_??5?$basic_istream@DU?$char_traits@D@std@@@std@@QEAAAEAV01@AEAI@Z
  003ea	48 8d 15 00 00
	00 00		 lea	 rdx, OFFSET FLAT:??$endl@DU?$char_traits@D@std@@@std@@YAAEAV?$basic_ostream@DU?$char_traits@D@std@@@0@AEAV10@@Z ; std::endl<char,std::char_traits<char> >
  003f1	48 8b 0d 00 00
	00 00		 mov	 rcx, QWORD PTR __imp_?cout@std@@3V?$basic_ostream@DU?$char_traits@D@std@@@1@A
  003f8	ff 15 00 00 00
	00		 call	 QWORD PTR __imp_??6?$basic_ostream@DU?$char_traits@D@std@@@std@@QEAAAEAV01@P6AAEAV01@AEAV01@@Z@Z

; 52   : 					if (choice == 1) {

  003fe	83 bd e4 00 00
	00 01		 cmp	 DWORD PTR choice$[rbp], 1
  00405	75 07		 jne	 SHORT $LN33@main

; 53   : 						main();

  00407	e8 00 00 00 00	 call	 main

; 54   : 					}

  0040c	eb 08		 jmp	 SHORT $LN34@main
$LN33@main:

; 55   : 					else {
; 56   : 						exit(0);

  0040e	33 c9		 xor	 ecx, ecx
  00410	ff 15 00 00 00
	00		 call	 QWORD PTR __imp_exit
$LN34@main:

; 57   : 					}
; 58   : 				} while (choice != 0);

  00416	83 bd e4 00 00
	00 00		 cmp	 DWORD PTR choice$[rbp], 0
  0041d	0f 85 4a ff ff
	ff		 jne	 $LN9@main
$LN32@main:
$LN30@main:

; 59   : 			}
; 60   : 		}

  00423	e9 7c 01 00 00	 jmp	 $LN28@main
$LN27@main:

; 61   : 		else {
; 62   : 			cout << year << "    ." << endl << endl;

  00428	8b 55 64	 mov	 edx, DWORD PTR year$[rbp]
  0042b	48 8b 0d 00 00
	00 00		 mov	 rcx, QWORD PTR __imp_?cout@std@@3V?$basic_ostream@DU?$char_traits@D@std@@@1@A
  00432	ff 15 00 00 00
	00		 call	 QWORD PTR __imp_??6?$basic_ostream@DU?$char_traits@D@std@@@std@@QEAAAEAV01@I@Z
  00438	48 8d 15 00 00
	00 00		 lea	 rdx, OFFSET FLAT:??_C@_0BN@LLDJGEGL@?5?c?n?d?5?m?e?5?$PP?b?k?$PP?e?r?q?$PP?5?b?h?q?n?j?n?q?m?$PL?l?4@
  0043f	48 8b c8	 mov	 rcx, rax
  00442	e8 00 00 00 00	 call	 ??$?6U?$char_traits@D@std@@@std@@YAAEAV?$basic_ostream@DU?$char_traits@D@std@@@0@AEAV10@PEBD@Z ; std::operator<<<std::char_traits<char> >
  00447	48 8d 15 00 00
	00 00		 lea	 rdx, OFFSET FLAT:??$endl@DU?$char_traits@D@std@@@std@@YAAEAV?$basic_ostream@DU?$char_traits@D@std@@@0@AEAV10@@Z ; std::endl<char,std::char_traits<char> >
  0044e	48 8b c8	 mov	 rcx, rax
  00451	ff 15 00 00 00
	00		 call	 QWORD PTR __imp_??6?$basic_ostream@DU?$char_traits@D@std@@@std@@QEAAAEAV01@P6AAEAV01@AEAV01@@Z@Z
  00457	48 8d 15 00 00
	00 00		 lea	 rdx, OFFSET FLAT:??$endl@DU?$char_traits@D@std@@@std@@YAAEAV?$basic_ostream@DU?$char_traits@D@std@@@0@AEAV10@@Z ; std::endl<char,std::char_traits<char> >
  0045e	48 8b c8	 mov	 rcx, rax
  00461	ff 15 00 00 00
	00		 call	 QWORD PTR __imp_??6?$basic_ostream@DU?$char_traits@D@std@@@std@@QEAAAEAV01@P6AAEAV01@AEAV01@@Z@Z

; 63   : 
; 64   : 			cout << " ?   -  1,   - 0" << endl;

  00467	48 8d 15 00 00
	00 00		 lea	 rdx, OFFSET FLAT:??_C@_0DF@PHNOKLHG@?U?n?r?h?r?e?5?o?p?n?d?n?k?f?h?r?$PM?$DP?5?E?q?k?h?5?d?$OA?5?9?5?b?b@
  0046e	48 8b 0d 00 00
	00 00		 mov	 rcx, QWORD PTR __imp_?cout@std@@3V?$basic_ostream@DU?$char_traits@D@std@@@1@A
  00475	e8 00 00 00 00	 call	 ??$?6U?$char_traits@D@std@@@std@@YAAEAV?$basic_ostream@DU?$char_traits@D@std@@@0@AEAV10@PEBD@Z ; std::operator<<<std::char_traits<char> >
  0047a	48 8d 15 00 00
	00 00		 lea	 rdx, OFFSET FLAT:??$endl@DU?$char_traits@D@std@@@std@@YAAEAV?$basic_ostream@DU?$char_traits@D@std@@@0@AEAV10@@Z ; std::endl<char,std::char_traits<char> >
  00481	48 8b c8	 mov	 rcx, rax
  00484	ff 15 00 00 00
	00		 call	 QWORD PTR __imp_??6?$basic_ostream@DU?$char_traits@D@std@@@std@@QEAAAEAV01@P6AAEAV01@AEAV01@@Z@Z

; 65   : 			cout << " : "; cin >> choice; cout << endl;

  0048a	48 8d 15 00 00
	00 00		 lea	 rdx, OFFSET FLAT:??_C@_0M@EJIEDNJD@?B?$OA?x?5?b?$PL?a?n?p?3?5@
  00491	48 8b 0d 00 00
	00 00		 mov	 rcx, QWORD PTR __imp_?cout@std@@3V?$basic_ostream@DU?$char_traits@D@std@@@1@A
  00498	e8 00 00 00 00	 call	 ??$?6U?$char_traits@D@std@@@std@@YAAEAV?$basic_ostream@DU?$char_traits@D@std@@@0@AEAV10@PEBD@Z ; std::operator<<<std::char_traits<char> >
  0049d	48 8d 95 e4 00
	00 00		 lea	 rdx, QWORD PTR choice$[rbp]
  004a4	48 8b 0d 00 00
	00 00		 mov	 rcx, QWORD PTR __imp_?cin@std@@3V?$basic_istream@DU?$char_traits@D@std@@@1@A
  004ab	ff 15 00 00 00
	00		 call	 QWORD PTR __imp_??5?$basic_istream@DU?$char_traits@D@std@@@std@@QEAAAEAV01@AEAI@Z
  004b1	48 8d 15 00 00
	00 00		 lea	 rdx, OFFSET FLAT:??$endl@DU?$char_traits@D@std@@@std@@YAAEAV?$basic_ostream@DU?$char_traits@D@std@@@0@AEAV10@@Z ; std::endl<char,std::char_traits<char> >
  004b8	48 8b 0d 00 00
	00 00		 mov	 rcx, QWORD PTR __imp_?cout@std@@3V?$basic_ostream@DU?$char_traits@D@std@@@1@A
  004bf	ff 15 00 00 00
	00		 call	 QWORD PTR __imp_??6?$basic_ostream@DU?$char_traits@D@std@@@std@@QEAAAEAV01@P6AAEAV01@AEAV01@@Z@Z

; 66   : 			if (choice == 1) {

  004c5	83 bd e4 00 00
	00 01		 cmp	 DWORD PTR choice$[rbp], 1
  004cc	75 0a		 jne	 SHORT $LN35@main

; 67   : 				main();

  004ce	e8 00 00 00 00	 call	 main

; 68   : 			}

  004d3	e9 cc 00 00 00	 jmp	 $LN36@main
$LN35@main:

; 69   : 			else if (choice == 0) {

  004d8	83 bd e4 00 00
	00 00		 cmp	 DWORD PTR choice$[rbp], 0
  004df	75 0d		 jne	 SHORT $LN37@main

; 70   : 				exit(0);

  004e1	33 c9		 xor	 ecx, ecx
  004e3	ff 15 00 00 00
	00		 call	 QWORD PTR __imp_exit

; 71   : 			}

  004e9	e9 b6 00 00 00	 jmp	 $LN38@main
$LN37@main:
$LN12@main:

; 72   : 			else {
; 73   : 				do {
; 74   : 					cout << "  !" << endl << endl;

  004ee	48 8d 15 00 00
	00 00		 lea	 rdx, OFFSET FLAT:??_C@_0BK@HEEPGOAC@?B?b?e?d?h?r?e?5?j?n?p?p?e?j?r?m?n?e?5?w?h?q?k?n?$CB@
  004f5	48 8b 0d 00 00
	00 00		 mov	 rcx, QWORD PTR __imp_?cout@std@@3V?$basic_ostream@DU?$char_traits@D@std@@@1@A
  004fc	e8 00 00 00 00	 call	 ??$?6U?$char_traits@D@std@@@std@@YAAEAV?$basic_ostream@DU?$char_traits@D@std@@@0@AEAV10@PEBD@Z ; std::operator<<<std::char_traits<char> >
  00501	48 8d 15 00 00
	00 00		 lea	 rdx, OFFSET FLAT:??$endl@DU?$char_traits@D@std@@@std@@YAAEAV?$basic_ostream@DU?$char_traits@D@std@@@0@AEAV10@@Z ; std::endl<char,std::char_traits<char> >
  00508	48 8b c8	 mov	 rcx, rax
  0050b	ff 15 00 00 00
	00		 call	 QWORD PTR __imp_??6?$basic_ostream@DU?$char_traits@D@std@@@std@@QEAAAEAV01@P6AAEAV01@AEAV01@@Z@Z
  00511	48 8d 15 00 00
	00 00		 lea	 rdx, OFFSET FLAT:??$endl@DU?$char_traits@D@std@@@std@@YAAEAV?$basic_ostream@DU?$char_traits@D@std@@@0@AEAV10@@Z ; std::endl<char,std::char_traits<char> >
  00518	48 8b c8	 mov	 rcx, rax
  0051b	ff 15 00 00 00
	00		 call	 QWORD PTR __imp_??6?$basic_ostream@DU?$char_traits@D@std@@@std@@QEAAAEAV01@P6AAEAV01@AEAV01@@Z@Z

; 75   : 					cout << " ?   -  1,   - 0" << endl;

  00521	48 8d 15 00 00
	00 00		 lea	 rdx, OFFSET FLAT:??_C@_0DF@PHNOKLHG@?U?n?r?h?r?e?5?o?p?n?d?n?k?f?h?r?$PM?$DP?5?E?q?k?h?5?d?$OA?5?9?5?b?b@
  00528	48 8b 0d 00 00
	00 00		 mov	 rcx, QWORD PTR __imp_?cout@std@@3V?$basic_ostream@DU?$char_traits@D@std@@@1@A
  0052f	e8 00 00 00 00	 call	 ??$?6U?$char_traits@D@std@@@std@@YAAEAV?$basic_ostream@DU?$char_traits@D@std@@@0@AEAV10@PEBD@Z ; std::operator<<<std::char_traits<char> >
  00534	48 8d 15 00 00
	00 00		 lea	 rdx, OFFSET FLAT:??$endl@DU?$char_traits@D@std@@@std@@YAAEAV?$basic_ostream@DU?$char_traits@D@std@@@0@AEAV10@@Z ; std::endl<char,std::char_traits<char> >
  0053b	48 8b c8	 mov	 rcx, rax
  0053e	ff 15 00 00 00
	00		 call	 QWORD PTR __imp_??6?$basic_ostream@DU?$char_traits@D@std@@@std@@QEAAAEAV01@P6AAEAV01@AEAV01@@Z@Z

; 76   : 					cout << " : "; cin >> choice; cout << endl;

  00544	48 8d 15 00 00
	00 00		 lea	 rdx, OFFSET FLAT:??_C@_0M@EJIEDNJD@?B?$OA?x?5?b?$PL?a?n?p?3?5@
  0054b	48 8b 0d 00 00
	00 00		 mov	 rcx, QWORD PTR __imp_?cout@std@@3V?$basic_ostream@DU?$char_traits@D@std@@@1@A
  00552	e8 00 00 00 00	 call	 ??$?6U?$char_traits@D@std@@@std@@YAAEAV?$basic_ostream@DU?$char_traits@D@std@@@0@AEAV10@PEBD@Z ; std::operator<<<std::char_traits<char> >
  00557	48 8d 95 e4 00
	00 00		 lea	 rdx, QWORD PTR choice$[rbp]
  0055e	48 8b 0d 00 00
	00 00		 mov	 rcx, QWORD PTR __imp_?cin@std@@3V?$basic_istream@DU?$char_traits@D@std@@@1@A
  00565	ff 15 00 00 00
	00		 call	 QWORD PTR __imp_??5?$basic_istream@DU?$char_traits@D@std@@@std@@QEAAAEAV01@AEAI@Z
  0056b	48 8d 15 00 00
	00 00		 lea	 rdx, OFFSET FLAT:??$endl@DU?$char_traits@D@std@@@std@@YAAEAV?$basic_ostream@DU?$char_traits@D@std@@@0@AEAV10@@Z ; std::endl<char,std::char_traits<char> >
  00572	48 8b 0d 00 00
	00 00		 mov	 rcx, QWORD PTR __imp_?cout@std@@3V?$basic_ostream@DU?$char_traits@D@std@@@1@A
  00579	ff 15 00 00 00
	00		 call	 QWORD PTR __imp_??6?$basic_ostream@DU?$char_traits@D@std@@@std@@QEAAAEAV01@P6AAEAV01@AEAV01@@Z@Z

; 77   : 					if (choice == 1) {

  0057f	83 bd e4 00 00
	00 01		 cmp	 DWORD PTR choice$[rbp], 1
  00586	75 07		 jne	 SHORT $LN39@main

; 78   : 						main();

  00588	e8 00 00 00 00	 call	 main

; 79   : 					}

  0058d	eb 08		 jmp	 SHORT $LN40@main
$LN39@main:

; 80   : 					else {
; 81   : 						exit(0);

  0058f	33 c9		 xor	 ecx, ecx
  00591	ff 15 00 00 00
	00		 call	 QWORD PTR __imp_exit
$LN40@main:

; 82   : 					}
; 83   : 				} while (choice != 0);

  00597	83 bd e4 00 00
	00 00		 cmp	 DWORD PTR choice$[rbp], 0
  0059e	0f 85 4a ff ff
	ff		 jne	 $LN12@main
$LN38@main:
$LN36@main:
$LN28@main:

; 84   : 			}
; 85   : 		}
; 86   : 	} break;

  005a4	e9 e4 04 00 00	 jmp	 $LN5@main
$LN41@main:

; 87   : 
; 88   : 	case 2: {
; 89   : 		cout << "     " << dayOfYear(day, month, year) << "." << endl << endl;

  005a9	44 8b 45 64	 mov	 r8d, DWORD PTR year$[rbp]
  005ad	8b 55 44	 mov	 edx, DWORD PTR month$[rbp]
  005b0	8b 4d 24	 mov	 ecx, DWORD PTR day$[rbp]
  005b3	e8 00 00 00 00	 call	 ?dayOfYear@@YAHHHH@Z	; dayOfYear
  005b8	89 85 b4 01 00
	00		 mov	 DWORD PTR tv279[rbp], eax
  005be	48 8d 15 00 00
	00 00		 lea	 rdx, OFFSET FLAT:??_C@_0BN@CGBIHHKN@?O?n?p?$PP?d?j?n?b?$PL?i?5?m?n?l?e?p?5?d?m?$PP?5?b?5?c?n?d?s?5@
  005c5	48 8b 0d 00 00
	00 00		 mov	 rcx, QWORD PTR __imp_?cout@std@@3V?$basic_ostream@DU?$char_traits@D@std@@@1@A
  005cc	e8 00 00 00 00	 call	 ??$?6U?$char_traits@D@std@@@std@@YAAEAV?$basic_ostream@DU?$char_traits@D@std@@@0@AEAV10@PEBD@Z ; std::operator<<<std::char_traits<char> >
  005d1	8b 8d b4 01 00
	00		 mov	 ecx, DWORD PTR tv279[rbp]
  005d7	8b d1		 mov	 edx, ecx
  005d9	48 8b c8	 mov	 rcx, rax
  005dc	ff 15 00 00 00
	00		 call	 QWORD PTR __imp_??6?$basic_ostream@DU?$char_traits@D@std@@@std@@QEAAAEAV01@H@Z
  005e2	48 8d 15 00 00
	00 00		 lea	 rdx, OFFSET FLAT:??_C@_01LFCBOECM@?4@
  005e9	48 8b c8	 mov	 rcx, rax
  005ec	e8 00 00 00 00	 call	 ??$?6U?$char_traits@D@std@@@std@@YAAEAV?$basic_ostream@DU?$char_traits@D@std@@@0@AEAV10@PEBD@Z ; std::operator<<<std::char_traits<char> >
  005f1	48 8d 15 00 00
	00 00		 lea	 rdx, OFFSET FLAT:??$endl@DU?$char_traits@D@std@@@std@@YAAEAV?$basic_ostream@DU?$char_traits@D@std@@@0@AEAV10@@Z ; std::endl<char,std::char_traits<char> >
  005f8	48 8b c8	 mov	 rcx, rax
  005fb	ff 15 00 00 00
	00		 call	 QWORD PTR __imp_??6?$basic_ostream@DU?$char_traits@D@std@@@std@@QEAAAEAV01@P6AAEAV01@AEAV01@@Z@Z
  00601	48 8d 15 00 00
	00 00		 lea	 rdx, OFFSET FLAT:??$endl@DU?$char_traits@D@std@@@std@@YAAEAV?$basic_ostream@DU?$char_traits@D@std@@@0@AEAV10@@Z ; std::endl<char,std::char_traits<char> >
  00608	48 8b c8	 mov	 rcx, rax
  0060b	ff 15 00 00 00
	00		 call	 QWORD PTR __imp_??6?$basic_ostream@DU?$char_traits@D@std@@@std@@QEAAAEAV01@P6AAEAV01@AEAV01@@Z@Z

; 90   : 
; 91   : 		cout << " ?   -  1,   - 0" << endl;

  00611	48 8d 15 00 00
	00 00		 lea	 rdx, OFFSET FLAT:??_C@_0DF@PHNOKLHG@?U?n?r?h?r?e?5?o?p?n?d?n?k?f?h?r?$PM?$DP?5?E?q?k?h?5?d?$OA?5?9?5?b?b@
  00618	48 8b 0d 00 00
	00 00		 mov	 rcx, QWORD PTR __imp_?cout@std@@3V?$basic_ostream@DU?$char_traits@D@std@@@1@A
  0061f	e8 00 00 00 00	 call	 ??$?6U?$char_traits@D@std@@@std@@YAAEAV?$basic_ostream@DU?$char_traits@D@std@@@0@AEAV10@PEBD@Z ; std::operator<<<std::char_traits<char> >
  00624	48 8d 15 00 00
	00 00		 lea	 rdx, OFFSET FLAT:??$endl@DU?$char_traits@D@std@@@std@@YAAEAV?$basic_ostream@DU?$char_traits@D@std@@@0@AEAV10@@Z ; std::endl<char,std::char_traits<char> >
  0062b	48 8b c8	 mov	 rcx, rax
  0062e	ff 15 00 00 00
	00		 call	 QWORD PTR __imp_??6?$basic_ostream@DU?$char_traits@D@std@@@std@@QEAAAEAV01@P6AAEAV01@AEAV01@@Z@Z

; 92   : 		cout << " : "; cin >> choice; cout << endl;

  00634	48 8d 15 00 00
	00 00		 lea	 rdx, OFFSET FLAT:??_C@_0M@EJIEDNJD@?B?$OA?x?5?b?$PL?a?n?p?3?5@
  0063b	48 8b 0d 00 00
	00 00		 mov	 rcx, QWORD PTR __imp_?cout@std@@3V?$basic_ostream@DU?$char_traits@D@std@@@1@A
  00642	e8 00 00 00 00	 call	 ??$?6U?$char_traits@D@std@@@std@@YAAEAV?$basic_ostream@DU?$char_traits@D@std@@@0@AEAV10@PEBD@Z ; std::operator<<<std::char_traits<char> >
  00647	48 8d 95 e4 00
	00 00		 lea	 rdx, QWORD PTR choice$[rbp]
  0064e	48 8b 0d 00 00
	00 00		 mov	 rcx, QWORD PTR __imp_?cin@std@@3V?$basic_istream@DU?$char_traits@D@std@@@1@A
  00655	ff 15 00 00 00
	00		 call	 QWORD PTR __imp_??5?$basic_istream@DU?$char_traits@D@std@@@std@@QEAAAEAV01@AEAI@Z
  0065b	48 8d 15 00 00
	00 00		 lea	 rdx, OFFSET FLAT:??$endl@DU?$char_traits@D@std@@@std@@YAAEAV?$basic_ostream@DU?$char_traits@D@std@@@0@AEAV10@@Z ; std::endl<char,std::char_traits<char> >
  00662	48 8b 0d 00 00
	00 00		 mov	 rcx, QWORD PTR __imp_?cout@std@@3V?$basic_ostream@DU?$char_traits@D@std@@@1@A
  00669	ff 15 00 00 00
	00		 call	 QWORD PTR __imp_??6?$basic_ostream@DU?$char_traits@D@std@@@std@@QEAAAEAV01@P6AAEAV01@AEAV01@@Z@Z

; 93   : 		if (choice == 1) {

  0066f	83 bd e4 00 00
	00 01		 cmp	 DWORD PTR choice$[rbp], 1
  00676	75 0a		 jne	 SHORT $LN42@main

; 94   : 			main();

  00678	e8 00 00 00 00	 call	 main

; 95   : 		}

  0067d	e9 cc 00 00 00	 jmp	 $LN43@main
$LN42@main:

; 96   : 		else if (choice == 0) {

  00682	83 bd e4 00 00
	00 00		 cmp	 DWORD PTR choice$[rbp], 0
  00689	75 0d		 jne	 SHORT $LN44@main

; 97   : 			exit(0);

  0068b	33 c9		 xor	 ecx, ecx
  0068d	ff 15 00 00 00
	00		 call	 QWORD PTR __imp_exit

; 98   : 		}

  00693	e9 b6 00 00 00	 jmp	 $LN45@main
$LN44@main:
$LN15@main:

; 99   : 		else {
; 100  : 			do {
; 101  : 				cout << "  !" << endl << endl;

  00698	48 8d 15 00 00
	00 00		 lea	 rdx, OFFSET FLAT:??_C@_0BK@HEEPGOAC@?B?b?e?d?h?r?e?5?j?n?p?p?e?j?r?m?n?e?5?w?h?q?k?n?$CB@
  0069f	48 8b 0d 00 00
	00 00		 mov	 rcx, QWORD PTR __imp_?cout@std@@3V?$basic_ostream@DU?$char_traits@D@std@@@1@A
  006a6	e8 00 00 00 00	 call	 ??$?6U?$char_traits@D@std@@@std@@YAAEAV?$basic_ostream@DU?$char_traits@D@std@@@0@AEAV10@PEBD@Z ; std::operator<<<std::char_traits<char> >
  006ab	48 8d 15 00 00
	00 00		 lea	 rdx, OFFSET FLAT:??$endl@DU?$char_traits@D@std@@@std@@YAAEAV?$basic_ostream@DU?$char_traits@D@std@@@0@AEAV10@@Z ; std::endl<char,std::char_traits<char> >
  006b2	48 8b c8	 mov	 rcx, rax
  006b5	ff 15 00 00 00
	00		 call	 QWORD PTR __imp_??6?$basic_ostream@DU?$char_traits@D@std@@@std@@QEAAAEAV01@P6AAEAV01@AEAV01@@Z@Z
  006bb	48 8d 15 00 00
	00 00		 lea	 rdx, OFFSET FLAT:??$endl@DU?$char_traits@D@std@@@std@@YAAEAV?$basic_ostream@DU?$char_traits@D@std@@@0@AEAV10@@Z ; std::endl<char,std::char_traits<char> >
  006c2	48 8b c8	 mov	 rcx, rax
  006c5	ff 15 00 00 00
	00		 call	 QWORD PTR __imp_??6?$basic_ostream@DU?$char_traits@D@std@@@std@@QEAAAEAV01@P6AAEAV01@AEAV01@@Z@Z

; 102  : 				cout << " ?   -  1,   - 0" << endl;

  006cb	48 8d 15 00 00
	00 00		 lea	 rdx, OFFSET FLAT:??_C@_0DF@PHNOKLHG@?U?n?r?h?r?e?5?o?p?n?d?n?k?f?h?r?$PM?$DP?5?E?q?k?h?5?d?$OA?5?9?5?b?b@
  006d2	48 8b 0d 00 00
	00 00		 mov	 rcx, QWORD PTR __imp_?cout@std@@3V?$basic_ostream@DU?$char_traits@D@std@@@1@A
  006d9	e8 00 00 00 00	 call	 ??$?6U?$char_traits@D@std@@@std@@YAAEAV?$basic_ostream@DU?$char_traits@D@std@@@0@AEAV10@PEBD@Z ; std::operator<<<std::char_traits<char> >
  006de	48 8d 15 00 00
	00 00		 lea	 rdx, OFFSET FLAT:??$endl@DU?$char_traits@D@std@@@std@@YAAEAV?$basic_ostream@DU?$char_traits@D@std@@@0@AEAV10@@Z ; std::endl<char,std::char_traits<char> >
  006e5	48 8b c8	 mov	 rcx, rax
  006e8	ff 15 00 00 00
	00		 call	 QWORD PTR __imp_??6?$basic_ostream@DU?$char_traits@D@std@@@std@@QEAAAEAV01@P6AAEAV01@AEAV01@@Z@Z

; 103  : 				cout << " : "; cin >> choice; cout << endl;

  006ee	48 8d 15 00 00
	00 00		 lea	 rdx, OFFSET FLAT:??_C@_0M@EJIEDNJD@?B?$OA?x?5?b?$PL?a?n?p?3?5@
  006f5	48 8b 0d 00 00
	00 00		 mov	 rcx, QWORD PTR __imp_?cout@std@@3V?$basic_ostream@DU?$char_traits@D@std@@@1@A
  006fc	e8 00 00 00 00	 call	 ??$?6U?$char_traits@D@std@@@std@@YAAEAV?$basic_ostream@DU?$char_traits@D@std@@@0@AEAV10@PEBD@Z ; std::operator<<<std::char_traits<char> >
  00701	48 8d 95 e4 00
	00 00		 lea	 rdx, QWORD PTR choice$[rbp]
  00708	48 8b 0d 00 00
	00 00		 mov	 rcx, QWORD PTR __imp_?cin@std@@3V?$basic_istream@DU?$char_traits@D@std@@@1@A
  0070f	ff 15 00 00 00
	00		 call	 QWORD PTR __imp_??5?$basic_istream@DU?$char_traits@D@std@@@std@@QEAAAEAV01@AEAI@Z
  00715	48 8d 15 00 00
	00 00		 lea	 rdx, OFFSET FLAT:??$endl@DU?$char_traits@D@std@@@std@@YAAEAV?$basic_ostream@DU?$char_traits@D@std@@@0@AEAV10@@Z ; std::endl<char,std::char_traits<char> >
  0071c	48 8b 0d 00 00
	00 00		 mov	 rcx, QWORD PTR __imp_?cout@std@@3V?$basic_ostream@DU?$char_traits@D@std@@@1@A
  00723	ff 15 00 00 00
	00		 call	 QWORD PTR __imp_??6?$basic_ostream@DU?$char_traits@D@std@@@std@@QEAAAEAV01@P6AAEAV01@AEAV01@@Z@Z

; 104  : 				if (choice == 1) {

  00729	83 bd e4 00 00
	00 01		 cmp	 DWORD PTR choice$[rbp], 1
  00730	75 07		 jne	 SHORT $LN46@main

; 105  : 					main();

  00732	e8 00 00 00 00	 call	 main

; 106  : 				}

  00737	eb 08		 jmp	 SHORT $LN47@main
$LN46@main:

; 107  : 				else {
; 108  : 					exit(0);

  00739	33 c9		 xor	 ecx, ecx
  0073b	ff 15 00 00 00
	00		 call	 QWORD PTR __imp_exit
$LN47@main:

; 109  : 				}
; 110  : 			} while (choice != 0);

  00741	83 bd e4 00 00
	00 00		 cmp	 DWORD PTR choice$[rbp], 0
  00748	0f 85 4a ff ff
	ff		 jne	 $LN15@main
$LN45@main:
$LN43@main:

; 111  : 		}
; 112  : 	} break;

  0074e	e9 3a 03 00 00	 jmp	 $LN5@main
$LN48@main:

; 113  : 
; 114  : 	case 3: {
; 115  : 		cout << "        : " << endl;

  00753	48 8d 15 00 00
	00 00		 lea	 rdx, OFFSET FLAT:??_C@_0DB@MMKPANFF@?B?b?e?d?h?r?e?5?d?$OA?r?s?5?d?m?$PP?5?p?n?f?d?e?m?h?$PP?5?b?5?t?n?p@
  0075a	48 8b 0d 00 00
	00 00		 mov	 rcx, QWORD PTR __imp_?cout@std@@3V?$basic_ostream@DU?$char_traits@D@std@@@1@A
  00761	e8 00 00 00 00	 call	 ??$?6U?$char_traits@D@std@@@std@@YAAEAV?$basic_ostream@DU?$char_traits@D@std@@@0@AEAV10@PEBD@Z ; std::operator<<<std::char_traits<char> >
  00766	48 8d 15 00 00
	00 00		 lea	 rdx, OFFSET FLAT:??$endl@DU?$char_traits@D@std@@@std@@YAAEAV?$basic_ostream@DU?$char_traits@D@std@@@0@AEAV10@@Z ; std::endl<char,std::char_traits<char> >
  0076d	48 8b c8	 mov	 rcx, rax
  00770	ff 15 00 00 00
	00		 call	 QWORD PTR __imp_??6?$basic_ostream@DU?$char_traits@D@std@@@std@@QEAAAEAV01@P6AAEAV01@AEAV01@@Z@Z

; 116  : 		cin >> iday >> imonth >> iyear; cout << endl;

  00776	48 8d 95 84 00
	00 00		 lea	 rdx, QWORD PTR iday$[rbp]
  0077d	48 8b 0d 00 00
	00 00		 mov	 rcx, QWORD PTR __imp_?cin@std@@3V?$basic_istream@DU?$char_traits@D@std@@@1@A
  00784	ff 15 00 00 00
	00		 call	 QWORD PTR __imp_??5?$basic_istream@DU?$char_traits@D@std@@@std@@QEAAAEAV01@AEAI@Z
  0078a	48 8d 95 a4 00
	00 00		 lea	 rdx, QWORD PTR imonth$[rbp]
  00791	48 8b c8	 mov	 rcx, rax
  00794	ff 15 00 00 00
	00		 call	 QWORD PTR __imp_??5?$basic_istream@DU?$char_traits@D@std@@@std@@QEAAAEAV01@AEAI@Z
  0079a	48 8d 95 c4 00
	00 00		 lea	 rdx, QWORD PTR iyear$[rbp]
  007a1	48 8b c8	 mov	 rcx, rax
  007a4	ff 15 00 00 00
	00		 call	 QWORD PTR __imp_??5?$basic_istream@DU?$char_traits@D@std@@@std@@QEAAAEAV01@AEAI@Z
  007aa	48 8d 15 00 00
	00 00		 lea	 rdx, OFFSET FLAT:??$endl@DU?$char_traits@D@std@@@std@@YAAEAV?$basic_ostream@DU?$char_traits@D@std@@@0@AEAV10@@Z ; std::endl<char,std::char_traits<char> >
  007b1	48 8b 0d 00 00
	00 00		 mov	 rcx, QWORD PTR __imp_?cout@std@@3V?$basic_ostream@DU?$char_traits@D@std@@@1@A
  007b8	ff 15 00 00 00
	00		 call	 QWORD PTR __imp_??6?$basic_ostream@DU?$char_traits@D@std@@@std@@QEAAAEAV01@P6AAEAV01@AEAV01@@Z@Z

; 117  : 		if (iday > 31 || iday < 1 || imonth > 12 || imonth < 1 || iyear > year + 1 || iyear < year) {

  007be	83 bd 84 00 00
	00 1f		 cmp	 DWORD PTR iday$[rbp], 31
  007c5	77 37		 ja	 SHORT $LN50@main
  007c7	83 bd 84 00 00
	00 01		 cmp	 DWORD PTR iday$[rbp], 1
  007ce	72 2e		 jb	 SHORT $LN50@main
  007d0	83 bd a4 00 00
	00 0c		 cmp	 DWORD PTR imonth$[rbp], 12
  007d7	77 25		 ja	 SHORT $LN50@main
  007d9	83 bd a4 00 00
	00 01		 cmp	 DWORD PTR imonth$[rbp], 1
  007e0	72 1c		 jb	 SHORT $LN50@main
  007e2	8b 45 64	 mov	 eax, DWORD PTR year$[rbp]
  007e5	ff c0		 inc	 eax
  007e7	39 85 c4 00 00
	00		 cmp	 DWORD PTR iyear$[rbp], eax
  007ed	77 0f		 ja	 SHORT $LN50@main
  007ef	8b 45 64	 mov	 eax, DWORD PTR year$[rbp]
  007f2	39 85 c4 00 00
	00		 cmp	 DWORD PTR iyear$[rbp], eax
  007f8	0f 83 cf 00 00
	00		 jae	 $LN49@main
$LN50@main:
$LN67@main:
$LN66@main:
$LN65@main:
$LN64@main:
$LN63@main:
$LN18@main:

; 118  : 			do {
; 119  : 				cout << "!    ." << endl << endl;

  007fe	48 8d 15 00 00
	00 00		 lea	 rdx, OFFSET FLAT:??_C@_0BN@MDBELKLM@?N?x?h?a?j?$OA?$CB?5?B?e?d?h?r?e?5?d?$OA?r?s?5?e?y?e?5?p?$OA?g?4@
  00805	48 8b 0d 00 00
	00 00		 mov	 rcx, QWORD PTR __imp_?cout@std@@3V?$basic_ostream@DU?$char_traits@D@std@@@1@A
  0080c	e8 00 00 00 00	 call	 ??$?6U?$char_traits@D@std@@@std@@YAAEAV?$basic_ostream@DU?$char_traits@D@std@@@0@AEAV10@PEBD@Z ; std::operator<<<std::char_traits<char> >
  00811	48 8d 15 00 00
	00 00		 lea	 rdx, OFFSET FLAT:??$endl@DU?$char_traits@D@std@@@std@@YAAEAV?$basic_ostream@DU?$char_traits@D@std@@@0@AEAV10@@Z ; std::endl<char,std::char_traits<char> >
  00818	48 8b c8	 mov	 rcx, rax
  0081b	ff 15 00 00 00
	00		 call	 QWORD PTR __imp_??6?$basic_ostream@DU?$char_traits@D@std@@@std@@QEAAAEAV01@P6AAEAV01@AEAV01@@Z@Z
  00821	48 8d 15 00 00
	00 00		 lea	 rdx, OFFSET FLAT:??$endl@DU?$char_traits@D@std@@@std@@YAAEAV?$basic_ostream@DU?$char_traits@D@std@@@0@AEAV10@@Z ; std::endl<char,std::char_traits<char> >
  00828	48 8b c8	 mov	 rcx, rax
  0082b	ff 15 00 00 00
	00		 call	 QWORD PTR __imp_??6?$basic_ostream@DU?$char_traits@D@std@@@std@@QEAAAEAV01@P6AAEAV01@AEAV01@@Z@Z

; 120  : 				cin >> iday >> imonth >> iyear; cout << endl;

  00831	48 8d 95 84 00
	00 00		 lea	 rdx, QWORD PTR iday$[rbp]
  00838	48 8b 0d 00 00
	00 00		 mov	 rcx, QWORD PTR __imp_?cin@std@@3V?$basic_istream@DU?$char_traits@D@std@@@1@A
  0083f	ff 15 00 00 00
	00		 call	 QWORD PTR __imp_??5?$basic_istream@DU?$char_traits@D@std@@@std@@QEAAAEAV01@AEAI@Z
  00845	48 8d 95 a4 00
	00 00		 lea	 rdx, QWORD PTR imonth$[rbp]
  0084c	48 8b c8	 mov	 rcx, rax
  0084f	ff 15 00 00 00
	00		 call	 QWORD PTR __imp_??5?$basic_istream@DU?$char_traits@D@std@@@std@@QEAAAEAV01@AEAI@Z
  00855	48 8d 95 c4 00
	00 00		 lea	 rdx, QWORD PTR iyear$[rbp]
  0085c	48 8b c8	 mov	 rcx, rax
  0085f	ff 15 00 00 00
	00		 call	 QWORD PTR __imp_??5?$basic_istream@DU?$char_traits@D@std@@@std@@QEAAAEAV01@AEAI@Z
  00865	48 8d 15 00 00
	00 00		 lea	 rdx, OFFSET FLAT:??$endl@DU?$char_traits@D@std@@@std@@YAAEAV?$basic_ostream@DU?$char_traits@D@std@@@0@AEAV10@@Z ; std::endl<char,std::char_traits<char> >
  0086c	48 8b 0d 00 00
	00 00		 mov	 rcx, QWORD PTR __imp_?cout@std@@3V?$basic_ostream@DU?$char_traits@D@std@@@1@A
  00873	ff 15 00 00 00
	00		 call	 QWORD PTR __imp_??6?$basic_ostream@DU?$char_traits@D@std@@@std@@QEAAAEAV01@P6AAEAV01@AEAV01@@Z@Z

; 121  : 			} while (iday > 31 || iday < 1 || imonth > 12 || imonth < 1 || iyear > year + 1 || iyear < year);

  00879	83 bd 84 00 00
	00 1f		 cmp	 DWORD PTR iday$[rbp], 31
  00880	0f 87 78 ff ff
	ff		 ja	 $LN18@main
  00886	83 bd 84 00 00
	00 01		 cmp	 DWORD PTR iday$[rbp], 1
  0088d	0f 82 6b ff ff
	ff		 jb	 $LN63@main
  00893	83 bd a4 00 00
	00 0c		 cmp	 DWORD PTR imonth$[rbp], 12
  0089a	0f 87 5e ff ff
	ff		 ja	 $LN64@main
  008a0	83 bd a4 00 00
	00 01		 cmp	 DWORD PTR imonth$[rbp], 1
  008a7	0f 82 51 ff ff
	ff		 jb	 $LN65@main
  008ad	8b 45 64	 mov	 eax, DWORD PTR year$[rbp]
  008b0	ff c0		 inc	 eax
  008b2	39 85 c4 00 00
	00		 cmp	 DWORD PTR iyear$[rbp], eax
  008b8	0f 87 40 ff ff
	ff		 ja	 $LN66@main
  008be	8b 45 64	 mov	 eax, DWORD PTR year$[rbp]
  008c1	39 85 c4 00 00
	00		 cmp	 DWORD PTR iyear$[rbp], eax
  008c7	0f 82 31 ff ff
	ff		 jb	 $LN67@main
$LN49@main:

; 122  : 		}
; 123  : 		cout << "      " << countOfDayUntilBirthday(day, month, year, iday, imonth, iyear) << "." << endl << endl;

  008cd	8b 85 c4 00 00
	00		 mov	 eax, DWORD PTR iyear$[rbp]
  008d3	89 44 24 28	 mov	 DWORD PTR [rsp+40], eax
  008d7	8b 85 a4 00 00
	00		 mov	 eax, DWORD PTR imonth$[rbp]
  008dd	89 44 24 20	 mov	 DWORD PTR [rsp+32], eax
  008e1	44 8b 8d 84 00
	00 00		 mov	 r9d, DWORD PTR iday$[rbp]
  008e8	44 8b 45 64	 mov	 r8d, DWORD PTR year$[rbp]
  008ec	8b 55 44	 mov	 edx, DWORD PTR month$[rbp]
  008ef	8b 4d 24	 mov	 ecx, DWORD PTR day$[rbp]
  008f2	e8 00 00 00 00	 call	 ?countOfDayUntilBirthday@@YAHHHHHHH@Z ; countOfDayUntilBirthday
  008f7	89 85 b4 01 00
	00		 mov	 DWORD PTR tv380[rbp], eax
  008fd	48 8d 15 00 00
	00 00		 lea	 rdx, OFFSET FLAT:??_C@_0CI@MKMCGGBM@?J?n?k?h?w?e?q?r?b?n?5?d?m?e?i?5?d?n?5?b?$OA?x?e?c?n?5?D?m?$PP?5?p@
  00904	48 8b 0d 00 00
	00 00		 mov	 rcx, QWORD PTR __imp_?cout@std@@3V?$basic_ostream@DU?$char_traits@D@std@@@1@A
  0090b	e8 00 00 00 00	 call	 ??$?6U?$char_traits@D@std@@@std@@YAAEAV?$basic_ostream@DU?$char_traits@D@std@@@0@AEAV10@PEBD@Z ; std::operator<<<std::char_traits<char> >
  00910	8b 8d b4 01 00
	00		 mov	 ecx, DWORD PTR tv380[rbp]
  00916	8b d1		 mov	 edx, ecx
  00918	48 8b c8	 mov	 rcx, rax
  0091b	ff 15 00 00 00
	00		 call	 QWORD PTR __imp_??6?$basic_ostream@DU?$char_traits@D@std@@@std@@QEAAAEAV01@H@Z
  00921	48 8d 15 00 00
	00 00		 lea	 rdx, OFFSET FLAT:??_C@_01LFCBOECM@?4@
  00928	48 8b c8	 mov	 rcx, rax
  0092b	e8 00 00 00 00	 call	 ??$?6U?$char_traits@D@std@@@std@@YAAEAV?$basic_ostream@DU?$char_traits@D@std@@@0@AEAV10@PEBD@Z ; std::operator<<<std::char_traits<char> >
  00930	48 8d 15 00 00
	00 00		 lea	 rdx, OFFSET FLAT:??$endl@DU?$char_traits@D@std@@@std@@YAAEAV?$basic_ostream@DU?$char_traits@D@std@@@0@AEAV10@@Z ; std::endl<char,std::char_traits<char> >
  00937	48 8b c8	 mov	 rcx, rax
  0093a	ff 15 00 00 00
	00		 call	 QWORD PTR __imp_??6?$basic_ostream@DU?$char_traits@D@std@@@std@@QEAAAEAV01@P6AAEAV01@AEAV01@@Z@Z
  00940	48 8d 15 00 00
	00 00		 lea	 rdx, OFFSET FLAT:??$endl@DU?$char_traits@D@std@@@std@@YAAEAV?$basic_ostream@DU?$char_traits@D@std@@@0@AEAV10@@Z ; std::endl<char,std::char_traits<char> >
  00947	48 8b c8	 mov	 rcx, rax
  0094a	ff 15 00 00 00
	00		 call	 QWORD PTR __imp_??6?$basic_ostream@DU?$char_traits@D@std@@@std@@QEAAAEAV01@P6AAEAV01@AEAV01@@Z@Z

; 124  : 
; 125  : 		cout << " ?   -  1,   - 0" << endl;

  00950	48 8d 15 00 00
	00 00		 lea	 rdx, OFFSET FLAT:??_C@_0DF@PHNOKLHG@?U?n?r?h?r?e?5?o?p?n?d?n?k?f?h?r?$PM?$DP?5?E?q?k?h?5?d?$OA?5?9?5?b?b@
  00957	48 8b 0d 00 00
	00 00		 mov	 rcx, QWORD PTR __imp_?cout@std@@3V?$basic_ostream@DU?$char_traits@D@std@@@1@A
  0095e	e8 00 00 00 00	 call	 ??$?6U?$char_traits@D@std@@@std@@YAAEAV?$basic_ostream@DU?$char_traits@D@std@@@0@AEAV10@PEBD@Z ; std::operator<<<std::char_traits<char> >
  00963	48 8d 15 00 00
	00 00		 lea	 rdx, OFFSET FLAT:??$endl@DU?$char_traits@D@std@@@std@@YAAEAV?$basic_ostream@DU?$char_traits@D@std@@@0@AEAV10@@Z ; std::endl<char,std::char_traits<char> >
  0096a	48 8b c8	 mov	 rcx, rax
  0096d	ff 15 00 00 00
	00		 call	 QWORD PTR __imp_??6?$basic_ostream@DU?$char_traits@D@std@@@std@@QEAAAEAV01@P6AAEAV01@AEAV01@@Z@Z

; 126  : 		cout << " : "; cin >> choice; cout << endl;

  00973	48 8d 15 00 00
	00 00		 lea	 rdx, OFFSET FLAT:??_C@_0M@EJIEDNJD@?B?$OA?x?5?b?$PL?a?n?p?3?5@
  0097a	48 8b 0d 00 00
	00 00		 mov	 rcx, QWORD PTR __imp_?cout@std@@3V?$basic_ostream@DU?$char_traits@D@std@@@1@A
  00981	e8 00 00 00 00	 call	 ??$?6U?$char_traits@D@std@@@std@@YAAEAV?$basic_ostream@DU?$char_traits@D@std@@@0@AEAV10@PEBD@Z ; std::operator<<<std::char_traits<char> >
  00986	48 8d 95 e4 00
	00 00		 lea	 rdx, QWORD PTR choice$[rbp]
  0098d	48 8b 0d 00 00
	00 00		 mov	 rcx, QWORD PTR __imp_?cin@std@@3V?$basic_istream@DU?$char_traits@D@std@@@1@A
  00994	ff 15 00 00 00
	00		 call	 QWORD PTR __imp_??5?$basic_istream@DU?$char_traits@D@std@@@std@@QEAAAEAV01@AEAI@Z
  0099a	48 8d 15 00 00
	00 00		 lea	 rdx, OFFSET FLAT:??$endl@DU?$char_traits@D@std@@@std@@YAAEAV?$basic_ostream@DU?$char_traits@D@std@@@0@AEAV10@@Z ; std::endl<char,std::char_traits<char> >
  009a1	48 8b 0d 00 00
	00 00		 mov	 rcx, QWORD PTR __imp_?cout@std@@3V?$basic_ostream@DU?$char_traits@D@std@@@1@A
  009a8	ff 15 00 00 00
	00		 call	 QWORD PTR __imp_??6?$basic_ostream@DU?$char_traits@D@std@@@std@@QEAAAEAV01@P6AAEAV01@AEAV01@@Z@Z

; 127  : 		if (choice == 1) {

  009ae	83 bd e4 00 00
	00 01		 cmp	 DWORD PTR choice$[rbp], 1
  009b5	75 0a		 jne	 SHORT $LN51@main

; 128  : 			main();

  009b7	e8 00 00 00 00	 call	 main

; 129  : 		}

  009bc	e9 cc 00 00 00	 jmp	 $LN52@main
$LN51@main:

; 130  : 		else if (choice == 0) {

  009c1	83 bd e4 00 00
	00 00		 cmp	 DWORD PTR choice$[rbp], 0
  009c8	75 0d		 jne	 SHORT $LN53@main

; 131  : 			exit(0);

  009ca	33 c9		 xor	 ecx, ecx
  009cc	ff 15 00 00 00
	00		 call	 QWORD PTR __imp_exit

; 132  : 		}

  009d2	e9 b6 00 00 00	 jmp	 $LN54@main
$LN53@main:
$LN21@main:

; 133  : 		else {
; 134  : 			do {
; 135  : 				cout << "  !" << endl << endl;

  009d7	48 8d 15 00 00
	00 00		 lea	 rdx, OFFSET FLAT:??_C@_0BK@HEEPGOAC@?B?b?e?d?h?r?e?5?j?n?p?p?e?j?r?m?n?e?5?w?h?q?k?n?$CB@
  009de	48 8b 0d 00 00
	00 00		 mov	 rcx, QWORD PTR __imp_?cout@std@@3V?$basic_ostream@DU?$char_traits@D@std@@@1@A
  009e5	e8 00 00 00 00	 call	 ??$?6U?$char_traits@D@std@@@std@@YAAEAV?$basic_ostream@DU?$char_traits@D@std@@@0@AEAV10@PEBD@Z ; std::operator<<<std::char_traits<char> >
  009ea	48 8d 15 00 00
	00 00		 lea	 rdx, OFFSET FLAT:??$endl@DU?$char_traits@D@std@@@std@@YAAEAV?$basic_ostream@DU?$char_traits@D@std@@@0@AEAV10@@Z ; std::endl<char,std::char_traits<char> >
  009f1	48 8b c8	 mov	 rcx, rax
  009f4	ff 15 00 00 00
	00		 call	 QWORD PTR __imp_??6?$basic_ostream@DU?$char_traits@D@std@@@std@@QEAAAEAV01@P6AAEAV01@AEAV01@@Z@Z
  009fa	48 8d 15 00 00
	00 00		 lea	 rdx, OFFSET FLAT:??$endl@DU?$char_traits@D@std@@@std@@YAAEAV?$basic_ostream@DU?$char_traits@D@std@@@0@AEAV10@@Z ; std::endl<char,std::char_traits<char> >
  00a01	48 8b c8	 mov	 rcx, rax
  00a04	ff 15 00 00 00
	00		 call	 QWORD PTR __imp_??6?$basic_ostream@DU?$char_traits@D@std@@@std@@QEAAAEAV01@P6AAEAV01@AEAV01@@Z@Z

; 136  : 				cout << " ?   -  1,   - 0" << endl;

  00a0a	48 8d 15 00 00
	00 00		 lea	 rdx, OFFSET FLAT:??_C@_0DF@PHNOKLHG@?U?n?r?h?r?e?5?o?p?n?d?n?k?f?h?r?$PM?$DP?5?E?q?k?h?5?d?$OA?5?9?5?b?b@
  00a11	48 8b 0d 00 00
	00 00		 mov	 rcx, QWORD PTR __imp_?cout@std@@3V?$basic_ostream@DU?$char_traits@D@std@@@1@A
  00a18	e8 00 00 00 00	 call	 ??$?6U?$char_traits@D@std@@@std@@YAAEAV?$basic_ostream@DU?$char_traits@D@std@@@0@AEAV10@PEBD@Z ; std::operator<<<std::char_traits<char> >
  00a1d	48 8d 15 00 00
	00 00		 lea	 rdx, OFFSET FLAT:??$endl@DU?$char_traits@D@std@@@std@@YAAEAV?$basic_ostream@DU?$char_traits@D@std@@@0@AEAV10@@Z ; std::endl<char,std::char_traits<char> >
  00a24	48 8b c8	 mov	 rcx, rax
  00a27	ff 15 00 00 00
	00		 call	 QWORD PTR __imp_??6?$basic_ostream@DU?$char_traits@D@std@@@std@@QEAAAEAV01@P6AAEAV01@AEAV01@@Z@Z

; 137  : 				cout << " : "; cin >> choice; cout << endl;

  00a2d	48 8d 15 00 00
	00 00		 lea	 rdx, OFFSET FLAT:??_C@_0M@EJIEDNJD@?B?$OA?x?5?b?$PL?a?n?p?3?5@
  00a34	48 8b 0d 00 00
	00 00		 mov	 rcx, QWORD PTR __imp_?cout@std@@3V?$basic_ostream@DU?$char_traits@D@std@@@1@A
  00a3b	e8 00 00 00 00	 call	 ??$?6U?$char_traits@D@std@@@std@@YAAEAV?$basic_ostream@DU?$char_traits@D@std@@@0@AEAV10@PEBD@Z ; std::operator<<<std::char_traits<char> >
  00a40	48 8d 95 e4 00
	00 00		 lea	 rdx, QWORD PTR choice$[rbp]
  00a47	48 8b 0d 00 00
	00 00		 mov	 rcx, QWORD PTR __imp_?cin@std@@3V?$basic_istream@DU?$char_traits@D@std@@@1@A
  00a4e	ff 15 00 00 00
	00		 call	 QWORD PTR __imp_??5?$basic_istream@DU?$char_traits@D@std@@@std@@QEAAAEAV01@AEAI@Z
  00a54	48 8d 15 00 00
	00 00		 lea	 rdx, OFFSET FLAT:??$endl@DU?$char_traits@D@std@@@std@@YAAEAV?$basic_ostream@DU?$char_traits@D@std@@@0@AEAV10@@Z ; std::endl<char,std::char_traits<char> >
  00a5b	48 8b 0d 00 00
	00 00		 mov	 rcx, QWORD PTR __imp_?cout@std@@3V?$basic_ostream@DU?$char_traits@D@std@@@1@A
  00a62	ff 15 00 00 00
	00		 call	 QWORD PTR __imp_??6?$basic_ostream@DU?$char_traits@D@std@@@std@@QEAAAEAV01@P6AAEAV01@AEAV01@@Z@Z

; 138  : 				if (choice == 1) {

  00a68	83 bd e4 00 00
	00 01		 cmp	 DWORD PTR choice$[rbp], 1
  00a6f	75 07		 jne	 SHORT $LN55@main

; 139  : 					main();

  00a71	e8 00 00 00 00	 call	 main

; 140  : 				}

  00a76	eb 08		 jmp	 SHORT $LN56@main
$LN55@main:

; 141  : 				else {
; 142  : 					exit(0);

  00a78	33 c9		 xor	 ecx, ecx
  00a7a	ff 15 00 00 00
	00		 call	 QWORD PTR __imp_exit
$LN56@main:

; 143  : 				}
; 144  : 			} while (choice != 0);

  00a80	83 bd e4 00 00
	00 00		 cmp	 DWORD PTR choice$[rbp], 0
  00a87	0f 85 4a ff ff
	ff		 jne	 $LN21@main
$LN54@main:
$LN52@main:
$LN5@main:

; 145  : 		}
; 146  : 	} break;
; 147  : 	}
; 148  : 
; 149  : 	return 0;

  00a8d	33 c0		 xor	 eax, eax
$LN57@main:

; 150  : }

  00a8f	48 8b f8	 mov	 rdi, rax
  00a92	48 8d 4d d0	 lea	 rcx, QWORD PTR [rbp-48]
  00a96	48 8d 15 00 00
	00 00		 lea	 rdx, OFFSET FLAT:main$rtcFrameData
  00a9d	e8 00 00 00 00	 call	 _RTC_CheckStackVars
  00aa2	48 8b c7	 mov	 rax, rdi
  00aa5	48 8b 8d b8 01
	00 00		 mov	 rcx, QWORD PTR __$ArrayPad$[rbp]
  00aac	48 33 cd	 xor	 rcx, rbp
  00aaf	e8 00 00 00 00	 call	 __security_check_cookie
  00ab4	48 8d a5 c8 01
	00 00		 lea	 rsp, QWORD PTR [rbp+456]
  00abb	5f		 pop	 rdi
  00abc	5d		 pop	 rbp
  00abd	c3		 ret	 0
main	ENDP
_TEXT	ENDS
; Function compile flags: /Odtp /RTCsu /ZI
; File C:\Program Files\Microsoft Visual Studio\2022\Community\VC\Tools\MSVC\14.39.33519\include\xstring
;	COMDAT ?eof@?$_Narrow_char_traits@DH@std@@SAHXZ
_TEXT	SEGMENT
?eof@?$_Narrow_char_traits@DH@std@@SAHXZ PROC		; std::_Narrow_char_traits<char,int>::eof, COMDAT

; 471  :     _NODISCARD static constexpr int_type eof() noexcept {

$LN4:
  00000	40 55		 push	 rbp
  00002	57		 push	 rdi
  00003	48 81 ec e8 00
	00 00		 sub	 rsp, 232		; 000000e8H
  0000a	48 8d 6c 24 20	 lea	 rbp, QWORD PTR [rsp+32]
  0000f	48 8d 0d 00 00
	00 00		 lea	 rcx, OFFSET FLAT:__31746AB4_xstring
  00016	e8 00 00 00 00	 call	 __CheckForDebuggerJustMyCode

; 472  :         return static_cast<int_type>(EOF);

  0001b	b8 ff ff ff ff	 mov	 eax, -1

; 473  :     }

  00020	48 8d a5 c8 00
	00 00		 lea	 rsp, QWORD PTR [rbp+200]
  00027	5f		 pop	 rdi
  00028	5d		 pop	 rbp
  00029	c3		 ret	 0
?eof@?$_Narrow_char_traits@DH@std@@SAHXZ ENDP		; std::_Narrow_char_traits<char,int>::eof
_TEXT	ENDS
; Function compile flags: /Odtp /RTCsu /ZI
; File C:\Program Files\Microsoft Visual Studio\2022\Community\VC\Tools\MSVC\14.39.33519\include\xstring
;	COMDAT ?eq_int_type@?$_Narrow_char_traits@DH@std@@SA_NHH@Z
_TEXT	SEGMENT
tv65 = 192
_Left$ = 240
_Right$ = 248
?eq_int_type@?$_Narrow_char_traits@DH@std@@SA_NHH@Z PROC ; std::_Narrow_char_traits<char,int>::eq_int_type, COMDAT

; 463  :     _NODISCARD static constexpr bool eq_int_type(const int_type _Left, const int_type _Right) noexcept {

$LN6:
  00000	89 54 24 10	 mov	 DWORD PTR [rsp+16], edx
  00004	89 4c 24 08	 mov	 DWORD PTR [rsp+8], ecx
  00008	55		 push	 rbp
  00009	57		 push	 rdi
  0000a	48 81 ec f8 00
	00 00		 sub	 rsp, 248		; 000000f8H
  00011	48 8d 6c 24 20	 lea	 rbp, QWORD PTR [rsp+32]
  00016	48 8d 0d 00 00
	00 00		 lea	 rcx, OFFSET FLAT:__31746AB4_xstring
  0001d	e8 00 00 00 00	 call	 __CheckForDebuggerJustMyCode

; 464  :         return _Left == _Right;

  00022	8b 85 f8 00 00
	00		 mov	 eax, DWORD PTR _Right$[rbp]
  00028	39 85 f0 00 00
	00		 cmp	 DWORD PTR _Left$[rbp], eax
  0002e	75 0c		 jne	 SHORT $LN3@eq_int_typ
  00030	c7 85 c0 00 00
	00 01 00 00 00	 mov	 DWORD PTR tv65[rbp], 1
  0003a	eb 0a		 jmp	 SHORT $LN4@eq_int_typ
$LN3@eq_int_typ:
  0003c	c7 85 c0 00 00
	00 00 00 00 00	 mov	 DWORD PTR tv65[rbp], 0
$LN4@eq_int_typ:
  00046	0f b6 85 c0 00
	00 00		 movzx	 eax, BYTE PTR tv65[rbp]

; 465  :     }

  0004d	48 8d a5 d8 00
	00 00		 lea	 rsp, QWORD PTR [rbp+216]
  00054	5f		 pop	 rdi
  00055	5d		 pop	 rbp
  00056	c3		 ret	 0
?eq_int_type@?$_Narrow_char_traits@DH@std@@SA_NHH@Z ENDP ; std::_Narrow_char_traits<char,int>::eq_int_type
_TEXT	ENDS
; Function compile flags: /Odtp /RTCsu /ZI
; File C:\Program Files\Microsoft Visual Studio\2022\Community\VC\Tools\MSVC\14.39.33519\include\xstring
;	COMDAT ?length@?$_Narrow_char_traits@DH@std@@SA_KQEBD@Z
_TEXT	SEGMENT
_First$ = 224
?length@?$_Narrow_char_traits@DH@std@@SA_KQEBD@Z PROC	; std::_Narrow_char_traits<char,int>::length, COMDAT

; 385  :     _NODISCARD static _CONSTEXPR17 size_t length(_In_z_ const _Elem* const _First) noexcept /* strengthened */ {

$LN4:
  00000	48 89 4c 24 08	 mov	 QWORD PTR [rsp+8], rcx
  00005	55		 push	 rbp
  00006	57		 push	 rdi
  00007	48 81 ec e8 00
	00 00		 sub	 rsp, 232		; 000000e8H
  0000e	48 8d 6c 24 20	 lea	 rbp, QWORD PTR [rsp+32]
  00013	48 8d 0d 00 00
	00 00		 lea	 rcx, OFFSET FLAT:__31746AB4_xstring
  0001a	e8 00 00 00 00	 call	 __CheckForDebuggerJustMyCode

; 386  :         // find length of null-terminated string
; 387  : #if _HAS_CXX17
; 388  : #ifdef __cpp_char8_t
; 389  :         if constexpr (is_same_v<_Elem, char8_t>) {
; 390  : #if _HAS_U8_INTRINSICS
; 391  :             return __builtin_u8strlen(_First);
; 392  : #else // ^^^ use u8 intrinsics / no u8 intrinsics vvv
; 393  :             return _Primary_char_traits::length(_First);
; 394  : #endif // ^^^ no u8 intrinsics ^^^
; 395  :         } else
; 396  : #endif // defined(__cpp_char8_t)
; 397  :         {
; 398  :             return __builtin_strlen(_First);
; 399  :         }
; 400  : #else // ^^^ _HAS_CXX17 / !_HAS_CXX17 vvv
; 401  :         return _CSTD strlen(reinterpret_cast<const char*>(_First));

  0001f	48 8b 8d e0 00
	00 00		 mov	 rcx, QWORD PTR _First$[rbp]
  00026	e8 00 00 00 00	 call	 strlen

; 402  : #endif // ^^^ !_HAS_CXX17 ^^^
; 403  :     }

  0002b	48 8d a5 c8 00
	00 00		 lea	 rsp, QWORD PTR [rbp+200]
  00032	5f		 pop	 rdi
  00033	5d		 pop	 rbp
  00034	c3		 ret	 0
?length@?$_Narrow_char_traits@DH@std@@SA_KQEBD@Z ENDP	; std::_Narrow_char_traits<char,int>::length
_TEXT	ENDS
; Function compile flags: /Odtp /RTCsu /ZI
; File E:\2 \\_1\calendar01\Laba_1\main.cpp
;	COMDAT ?__empty_global_delete@@YAXPEAX_K@Z
_TEXT	SEGMENT
__formal$ = 224
__formal$ = 232
?__empty_global_delete@@YAXPEAX_K@Z PROC		; __empty_global_delete, COMDAT

$LN3:
  00000	48 89 54 24 10	 mov	 QWORD PTR [rsp+16], rdx
  00005	48 89 4c 24 08	 mov	 QWORD PTR [rsp+8], rcx
  0000a	55		 push	 rbp
  0000b	57		 push	 rdi
  0000c	48 81 ec e8 00
	00 00		 sub	 rsp, 232		; 000000e8H
  00013	48 8d 6c 24 20	 lea	 rbp, QWORD PTR [rsp+32]
  00018	48 8d 0d 00 00
	00 00		 lea	 rcx, OFFSET FLAT:__7D9BF697_main@cpp
  0001f	e8 00 00 00 00	 call	 __CheckForDebuggerJustMyCode
  00024	48 8d a5 c8 00
	00 00		 lea	 rsp, QWORD PTR [rbp+200]
  0002b	5f		 pop	 rdi
  0002c	5d		 pop	 rbp
  0002d	c3		 ret	 0
?__empty_global_delete@@YAXPEAX_K@Z ENDP		; __empty_global_delete
_TEXT	ENDS
; Function compile flags: /Odtp /RTCsu /ZI
; File E:\2 \\_1\calendar01\Laba_1\main.cpp
;	COMDAT ?__empty_global_delete@@YAXPEAX@Z
_TEXT	SEGMENT
__formal$ = 224
?__empty_global_delete@@YAXPEAX@Z PROC			; __empty_global_delete, COMDAT

$LN3:
  00000	48 89 4c 24 08	 mov	 QWORD PTR [rsp+8], rcx
  00005	55		 push	 rbp
  00006	57		 push	 rdi
  00007	48 81 ec e8 00
	00 00		 sub	 rsp, 232		; 000000e8H
  0000e	48 8d 6c 24 20	 lea	 rbp, QWORD PTR [rsp+32]
  00013	48 8d 0d 00 00
	00 00		 lea	 rcx, OFFSET FLAT:__7D9BF697_main@cpp
  0001a	e8 00 00 00 00	 call	 __CheckForDebuggerJustMyCode
  0001f	48 8d a5 c8 00
	00 00		 lea	 rsp, QWORD PTR [rbp+200]
  00026	5f		 pop	 rdi
  00027	5d		 pop	 rbp
  00028	c3		 ret	 0
?__empty_global_delete@@YAXPEAX@Z ENDP			; __empty_global_delete
_TEXT	ENDS
END
