; Listing generated by Microsoft (R) Optimizing Compiler Version 19.39.33520.0 

include listing.inc

INCLUDELIB MSVCRTD
INCLUDELIB OLDNAMES

msvcjmc	SEGMENT
__C225F699_Laba_1@pch DB 01H
__26869255_countOfDayUntilBirthday@cpp DB 01H
__656ECC1D_stdafx@h DB 01H
__1ED160C2_stdafx@cpp DB 01H
msvcjmc	ENDS
PUBLIC	?__empty_global_delete@@YAXPEAX@Z		; __empty_global_delete
PUBLIC	?__empty_global_delete@@YAXPEAX_K@Z		; __empty_global_delete
PUBLIC	?countOfDayUntilBirthday@@YAHHHHHHH@Z		; countOfDayUntilBirthday
PUBLIC	__JustMyCode_Default
EXTRN	_RTC_CheckStackVars:PROC
EXTRN	_RTC_InitBase:PROC
EXTRN	_RTC_Shutdown:PROC
EXTRN	__CheckForDebuggerJustMyCode:PROC
;	COMDAT pdata
pdata	SEGMENT
$pdata$?__empty_global_delete@@YAXPEAX@Z DD imagerel $LN3
	DD	imagerel $LN3+41
	DD	imagerel $unwind$?__empty_global_delete@@YAXPEAX@Z
pdata	ENDS
;	COMDAT pdata
pdata	SEGMENT
$pdata$?__empty_global_delete@@YAXPEAX_K@Z DD imagerel $LN3
	DD	imagerel $LN3+46
	DD	imagerel $unwind$?__empty_global_delete@@YAXPEAX_K@Z
pdata	ENDS
;	COMDAT pdata
pdata	SEGMENT
$pdata$?countOfDayUntilBirthday@@YAHHHHHHH@Z DD imagerel $LN21
	DD	imagerel $LN21+626
	DD	imagerel $unwind$?countOfDayUntilBirthday@@YAHHHHHHH@Z
pdata	ENDS
;	COMDAT rtc$TMZ
rtc$TMZ	SEGMENT
_RTC_Shutdown.rtc$TMZ DQ FLAT:_RTC_Shutdown
rtc$TMZ	ENDS
;	COMDAT rtc$IMZ
rtc$IMZ	SEGMENT
_RTC_InitBase.rtc$IMZ DQ FLAT:_RTC_InitBase
rtc$IMZ	ENDS
;	COMDAT xdata
xdata	SEGMENT
$unwind$?countOfDayUntilBirthday@@YAHHHHHHH@Z DD 025053801H
	DD	011b2320H
	DD	07014003bH
	DD	05013H
xdata	ENDS
;	COMDAT CONST
CONST	SEGMENT
?countOfDayUntilBirthday@@YAHHHHHHH@Z$rtcName$0 DB 064H	; countOfDayUntilBirthday
	DB	061H
	DB	079H
	DB	073H
	DB	04fH
	DB	066H
	DB	04dH
	DB	06fH
	DB	06eH
	DB	074H
	DB	068H
	DB	00H
	ORG $+4
?countOfDayUntilBirthday@@YAHHHHHHH@Z$rtcVarDesc DD 048H ; countOfDayUntilBirthday
	DD	030H
	DQ	FLAT:?countOfDayUntilBirthday@@YAHHHHHHH@Z$rtcName$0
	ORG $+48
?countOfDayUntilBirthday@@YAHHHHHHH@Z$rtcFrameData DD 01H ; countOfDayUntilBirthday
	DD	00H
	DQ	FLAT:?countOfDayUntilBirthday@@YAHHHHHHH@Z$rtcVarDesc
CONST	ENDS
;	COMDAT xdata
xdata	SEGMENT
$unwind$?__empty_global_delete@@YAXPEAX_K@Z DD 025051801H
	DD	01132318H
	DD	0700c001dH
	DD	0500bH
xdata	ENDS
;	COMDAT xdata
xdata	SEGMENT
$unwind$?__empty_global_delete@@YAXPEAX@Z DD 025051301H
	DD	010e2313H
	DD	07007001dH
	DD	05006H
xdata	ENDS
; Function compile flags: /Odt
;	COMDAT __JustMyCode_Default
_TEXT	SEGMENT
__JustMyCode_Default PROC				; COMDAT
  00000	c2 00 00	 ret	 0
__JustMyCode_Default ENDP
_TEXT	ENDS
; Function compile flags: /Odtp /RTCsu /ZI
; File E:\2 семестр\КПО\Лаба_3\calendar01\Laba_1\countOfDayUntilBirthday.cpp
;	COMDAT ?countOfDayUntilBirthday@@YAHHHHHHH@Z
_TEXT	SEGMENT
dayNumber$ = 4
daysOfMonth$ = 40
i$4 = 116
idayNumber$ = 148
i$5 = 180
countOfDays$6 = 212
day$ = 464
month$ = 472
year$ = 480
iday$ = 488
imonth$ = 496
iyear$ = 504
?countOfDayUntilBirthday@@YAHHHHHHH@Z PROC		; countOfDayUntilBirthday, COMDAT

; 3    : int countOfDayUntilBirthday(int day, int month, int year, int iday, int imonth, int iyear) {

$LN21:
  00000	44 89 4c 24 20	 mov	 DWORD PTR [rsp+32], r9d
  00005	44 89 44 24 18	 mov	 DWORD PTR [rsp+24], r8d
  0000a	89 54 24 10	 mov	 DWORD PTR [rsp+16], edx
  0000e	89 4c 24 08	 mov	 DWORD PTR [rsp+8], ecx
  00012	55		 push	 rbp
  00013	57		 push	 rdi
  00014	48 81 ec d8 01
	00 00		 sub	 rsp, 472		; 000001d8H
  0001b	48 8d 6c 24 20	 lea	 rbp, QWORD PTR [rsp+32]
  00020	48 8d 7c 24 20	 lea	 rdi, QWORD PTR [rsp+32]
  00025	b9 3e 00 00 00	 mov	 ecx, 62			; 0000003eH
  0002a	b8 cc cc cc cc	 mov	 eax, -858993460		; ccccccccH
  0002f	f3 ab		 rep stosd
  00031	8b 8c 24 f8 01
	00 00		 mov	 ecx, DWORD PTR [rsp+504]
  00038	48 8d 0d 00 00
	00 00		 lea	 rcx, OFFSET FLAT:__26869255_countOfDayUntilBirthday@cpp
  0003f	e8 00 00 00 00	 call	 __CheckForDebuggerJustMyCode

; 4    : 	int dayNumber = day;

  00044	8b 85 d0 01 00
	00		 mov	 eax, DWORD PTR day$[rbp]
  0004a	89 45 04	 mov	 DWORD PTR dayNumber$[rbp], eax

; 5    : 	int daysOfMonth[] = { 31, 28, 31, 30, 31, 30, 31, 31, 30, 31, 30, 31 };

  0004d	c7 45 28 1f 00
	00 00		 mov	 DWORD PTR daysOfMonth$[rbp], 31
  00054	c7 45 2c 1c 00
	00 00		 mov	 DWORD PTR daysOfMonth$[rbp+4], 28
  0005b	c7 45 30 1f 00
	00 00		 mov	 DWORD PTR daysOfMonth$[rbp+8], 31
  00062	c7 45 34 1e 00
	00 00		 mov	 DWORD PTR daysOfMonth$[rbp+12], 30
  00069	c7 45 38 1f 00
	00 00		 mov	 DWORD PTR daysOfMonth$[rbp+16], 31
  00070	c7 45 3c 1e 00
	00 00		 mov	 DWORD PTR daysOfMonth$[rbp+20], 30
  00077	c7 45 40 1f 00
	00 00		 mov	 DWORD PTR daysOfMonth$[rbp+24], 31
  0007e	c7 45 44 1f 00
	00 00		 mov	 DWORD PTR daysOfMonth$[rbp+28], 31
  00085	c7 45 48 1e 00
	00 00		 mov	 DWORD PTR daysOfMonth$[rbp+32], 30
  0008c	c7 45 4c 1f 00
	00 00		 mov	 DWORD PTR daysOfMonth$[rbp+36], 31
  00093	c7 45 50 1e 00
	00 00		 mov	 DWORD PTR daysOfMonth$[rbp+40], 30
  0009a	c7 45 54 1f 00
	00 00		 mov	 DWORD PTR daysOfMonth$[rbp+44], 31

; 6    : 	for (int i = 0; i < month - 1; i++) {

  000a1	c7 45 74 00 00
	00 00		 mov	 DWORD PTR i$4[rbp], 0
  000a8	eb 08		 jmp	 SHORT $LN4@countOfDay
$LN2@countOfDay:
  000aa	8b 45 74	 mov	 eax, DWORD PTR i$4[rbp]
  000ad	ff c0		 inc	 eax
  000af	89 45 74	 mov	 DWORD PTR i$4[rbp], eax
$LN4@countOfDay:
  000b2	8b 85 d8 01 00
	00		 mov	 eax, DWORD PTR month$[rbp]
  000b8	ff c8		 dec	 eax
  000ba	39 45 74	 cmp	 DWORD PTR i$4[rbp], eax
  000bd	7d 14		 jge	 SHORT $LN3@countOfDay

; 7    : 		dayNumber += daysOfMonth[i];

  000bf	48 63 45 74	 movsxd	 rax, DWORD PTR i$4[rbp]
  000c3	8b 44 85 28	 mov	 eax, DWORD PTR daysOfMonth$[rbp+rax*4]
  000c7	8b 4d 04	 mov	 ecx, DWORD PTR dayNumber$[rbp]
  000ca	03 c8		 add	 ecx, eax
  000cc	8b c1		 mov	 eax, ecx
  000ce	89 45 04	 mov	 DWORD PTR dayNumber$[rbp], eax

; 8    : 	}

  000d1	eb d7		 jmp	 SHORT $LN2@countOfDay
$LN3@countOfDay:

; 9    : 	if (((year % 4 == 0 && year % 100 != 0) || (year % 400 == 0)) && month > 2) {

  000d3	8b 85 e0 01 00
	00		 mov	 eax, DWORD PTR year$[rbp]
  000d9	99		 cdq
  000da	83 e2 03	 and	 edx, 3
  000dd	03 c2		 add	 eax, edx
  000df	83 e0 03	 and	 eax, 3
  000e2	2b c2		 sub	 eax, edx
  000e4	85 c0		 test	 eax, eax
  000e6	75 14		 jne	 SHORT $LN10@countOfDay
  000e8	8b 85 e0 01 00
	00		 mov	 eax, DWORD PTR year$[rbp]
  000ee	99		 cdq
  000ef	b9 64 00 00 00	 mov	 ecx, 100		; 00000064H
  000f4	f7 f9		 idiv	 ecx
  000f6	8b c2		 mov	 eax, edx
  000f8	85 c0		 test	 eax, eax
  000fa	75 14		 jne	 SHORT $LN9@countOfDay
$LN10@countOfDay:
  000fc	8b 85 e0 01 00
	00		 mov	 eax, DWORD PTR year$[rbp]
  00102	99		 cdq
  00103	b9 90 01 00 00	 mov	 ecx, 400		; 00000190H
  00108	f7 f9		 idiv	 ecx
  0010a	8b c2		 mov	 eax, edx
  0010c	85 c0		 test	 eax, eax
  0010e	75 11		 jne	 SHORT $LN8@countOfDay
$LN9@countOfDay:
  00110	83 bd d8 01 00
	00 02		 cmp	 DWORD PTR month$[rbp], 2
  00117	7e 08		 jle	 SHORT $LN8@countOfDay

; 10   : 		dayNumber++;

  00119	8b 45 04	 mov	 eax, DWORD PTR dayNumber$[rbp]
  0011c	ff c0		 inc	 eax
  0011e	89 45 04	 mov	 DWORD PTR dayNumber$[rbp], eax
$LN8@countOfDay:

; 11   : 	}
; 12   : 
; 13   : 	int idayNumber = iday;

  00121	8b 85 e8 01 00
	00		 mov	 eax, DWORD PTR iday$[rbp]
  00127	89 85 94 00 00
	00		 mov	 DWORD PTR idayNumber$[rbp], eax

; 14   : 	for (int i = 0; i < imonth - 1; i++) {

  0012d	c7 85 b4 00 00
	00 00 00 00 00	 mov	 DWORD PTR i$5[rbp], 0
  00137	eb 0e		 jmp	 SHORT $LN7@countOfDay
$LN5@countOfDay:
  00139	8b 85 b4 00 00
	00		 mov	 eax, DWORD PTR i$5[rbp]
  0013f	ff c0		 inc	 eax
  00141	89 85 b4 00 00
	00		 mov	 DWORD PTR i$5[rbp], eax
$LN7@countOfDay:
  00147	8b 85 f0 01 00
	00		 mov	 eax, DWORD PTR imonth$[rbp]
  0014d	ff c8		 dec	 eax
  0014f	39 85 b4 00 00
	00		 cmp	 DWORD PTR i$5[rbp], eax
  00155	7d 1d		 jge	 SHORT $LN6@countOfDay

; 15   : 		idayNumber += daysOfMonth[i];

  00157	48 63 85 b4 00
	00 00		 movsxd	 rax, DWORD PTR i$5[rbp]
  0015e	8b 44 85 28	 mov	 eax, DWORD PTR daysOfMonth$[rbp+rax*4]
  00162	8b 8d 94 00 00
	00		 mov	 ecx, DWORD PTR idayNumber$[rbp]
  00168	03 c8		 add	 ecx, eax
  0016a	8b c1		 mov	 eax, ecx
  0016c	89 85 94 00 00
	00		 mov	 DWORD PTR idayNumber$[rbp], eax

; 16   : 	}

  00172	eb c5		 jmp	 SHORT $LN5@countOfDay
$LN6@countOfDay:

; 17   : 	if (((iyear % 4 == 0 && iyear % 100 != 0) || (iyear % 400 == 0)) && imonth > 2) {

  00174	8b 85 f8 01 00
	00		 mov	 eax, DWORD PTR iyear$[rbp]
  0017a	99		 cdq
  0017b	83 e2 03	 and	 edx, 3
  0017e	03 c2		 add	 eax, edx
  00180	83 e0 03	 and	 eax, 3
  00183	2b c2		 sub	 eax, edx
  00185	85 c0		 test	 eax, eax
  00187	75 14		 jne	 SHORT $LN13@countOfDay
  00189	8b 85 f8 01 00
	00		 mov	 eax, DWORD PTR iyear$[rbp]
  0018f	99		 cdq
  00190	b9 64 00 00 00	 mov	 ecx, 100		; 00000064H
  00195	f7 f9		 idiv	 ecx
  00197	8b c2		 mov	 eax, edx
  00199	85 c0		 test	 eax, eax
  0019b	75 14		 jne	 SHORT $LN12@countOfDay
$LN13@countOfDay:
  0019d	8b 85 f8 01 00
	00		 mov	 eax, DWORD PTR iyear$[rbp]
  001a3	99		 cdq
  001a4	b9 90 01 00 00	 mov	 ecx, 400		; 00000190H
  001a9	f7 f9		 idiv	 ecx
  001ab	8b c2		 mov	 eax, edx
  001ad	85 c0		 test	 eax, eax
  001af	75 17		 jne	 SHORT $LN11@countOfDay
$LN12@countOfDay:
  001b1	83 bd f0 01 00
	00 02		 cmp	 DWORD PTR imonth$[rbp], 2
  001b8	7e 0e		 jle	 SHORT $LN11@countOfDay

; 18   : 		idayNumber++;

  001ba	8b 85 94 00 00
	00		 mov	 eax, DWORD PTR idayNumber$[rbp]
  001c0	ff c0		 inc	 eax
  001c2	89 85 94 00 00
	00		 mov	 DWORD PTR idayNumber$[rbp], eax
$LN11@countOfDay:

; 19   : 	}
; 20   : 
; 21   : 	if (imonth < month) {

  001c8	8b 85 d8 01 00
	00		 mov	 eax, DWORD PTR month$[rbp]
  001ce	39 85 f0 01 00
	00		 cmp	 DWORD PTR imonth$[rbp], eax
  001d4	7d 6f		 jge	 SHORT $LN14@countOfDay

; 22   : 		int countOfDays;
; 23   : 		if ((iyear % 4 == 0 && iyear % 100 != 0) || (iyear % 400 == 0)) {

  001d6	8b 85 f8 01 00
	00		 mov	 eax, DWORD PTR iyear$[rbp]
  001dc	99		 cdq
  001dd	83 e2 03	 and	 edx, 3
  001e0	03 c2		 add	 eax, edx
  001e2	83 e0 03	 and	 eax, 3
  001e5	2b c2		 sub	 eax, edx
  001e7	85 c0		 test	 eax, eax
  001e9	75 14		 jne	 SHORT $LN19@countOfDay
  001eb	8b 85 f8 01 00
	00		 mov	 eax, DWORD PTR iyear$[rbp]
  001f1	99		 cdq
  001f2	b9 64 00 00 00	 mov	 ecx, 100		; 00000064H
  001f7	f7 f9		 idiv	 ecx
  001f9	8b c2		 mov	 eax, edx
  001fb	85 c0		 test	 eax, eax
  001fd	75 14		 jne	 SHORT $LN18@countOfDay
$LN19@countOfDay:
  001ff	8b 85 f8 01 00
	00		 mov	 eax, DWORD PTR iyear$[rbp]
  00205	99		 cdq
  00206	b9 90 01 00 00	 mov	 ecx, 400		; 00000190H
  0020b	f7 f9		 idiv	 ecx
  0020d	8b c2		 mov	 eax, edx
  0020f	85 c0		 test	 eax, eax
  00211	75 10		 jne	 SHORT $LN16@countOfDay
$LN18@countOfDay:

; 24   : 			countOfDays = 366 - dayNumber;

  00213	b8 6e 01 00 00	 mov	 eax, 366		; 0000016eH
  00218	2b 45 04	 sub	 eax, DWORD PTR dayNumber$[rbp]
  0021b	89 85 d4 00 00
	00		 mov	 DWORD PTR countOfDays$6[rbp], eax

; 25   : 		}

  00221	eb 0e		 jmp	 SHORT $LN17@countOfDay
$LN16@countOfDay:

; 26   : 		else {
; 27   : 			countOfDays = 365 - dayNumber;

  00223	b8 6d 01 00 00	 mov	 eax, 365		; 0000016dH
  00228	2b 45 04	 sub	 eax, DWORD PTR dayNumber$[rbp]
  0022b	89 85 d4 00 00
	00		 mov	 DWORD PTR countOfDays$6[rbp], eax
$LN17@countOfDay:

; 28   : 		}
; 29   : 		return (countOfDays + idayNumber);

  00231	8b 85 94 00 00
	00		 mov	 eax, DWORD PTR idayNumber$[rbp]
  00237	8b 8d d4 00 00
	00		 mov	 ecx, DWORD PTR countOfDays$6[rbp]
  0023d	03 c8		 add	 ecx, eax
  0023f	8b c1		 mov	 eax, ecx
  00241	eb 0f		 jmp	 SHORT $LN1@countOfDay

; 30   : 	}

  00243	eb 0d		 jmp	 SHORT $LN15@countOfDay
$LN14@countOfDay:

; 31   : 	else {
; 32   : 		return (idayNumber - dayNumber);

  00245	8b 45 04	 mov	 eax, DWORD PTR dayNumber$[rbp]
  00248	8b 8d 94 00 00
	00		 mov	 ecx, DWORD PTR idayNumber$[rbp]
  0024e	2b c8		 sub	 ecx, eax
  00250	8b c1		 mov	 eax, ecx
$LN15@countOfDay:
$LN1@countOfDay:

; 33   : 	}
; 34   : }

  00252	48 8b f8	 mov	 rdi, rax
  00255	48 8d 4d e0	 lea	 rcx, QWORD PTR [rbp-32]
  00259	48 8d 15 00 00
	00 00		 lea	 rdx, OFFSET FLAT:?countOfDayUntilBirthday@@YAHHHHHHH@Z$rtcFrameData
  00260	e8 00 00 00 00	 call	 _RTC_CheckStackVars
  00265	48 8b c7	 mov	 rax, rdi
  00268	48 8d a5 b8 01
	00 00		 lea	 rsp, QWORD PTR [rbp+440]
  0026f	5f		 pop	 rdi
  00270	5d		 pop	 rbp
  00271	c3		 ret	 0
?countOfDayUntilBirthday@@YAHHHHHHH@Z ENDP		; countOfDayUntilBirthday
_TEXT	ENDS
; Function compile flags: /Odtp /RTCsu /ZI
; File E:\2 семестр\КПО\Лаба_3\calendar01\Laba_1\countOfDayUntilBirthday.cpp
;	COMDAT ?__empty_global_delete@@YAXPEAX_K@Z
_TEXT	SEGMENT
__formal$ = 224
__formal$ = 232
?__empty_global_delete@@YAXPEAX_K@Z PROC		; __empty_global_delete, COMDAT

$LN3:
  00000	48 89 54 24 10	 mov	 QWORD PTR [rsp+16], rdx
  00005	48 89 4c 24 08	 mov	 QWORD PTR [rsp+8], rcx
  0000a	55		 push	 rbp
  0000b	57		 push	 rdi
  0000c	48 81 ec e8 00
	00 00		 sub	 rsp, 232		; 000000e8H
  00013	48 8d 6c 24 20	 lea	 rbp, QWORD PTR [rsp+32]
  00018	48 8d 0d 00 00
	00 00		 lea	 rcx, OFFSET FLAT:__26869255_countOfDayUntilBirthday@cpp
  0001f	e8 00 00 00 00	 call	 __CheckForDebuggerJustMyCode
  00024	48 8d a5 c8 00
	00 00		 lea	 rsp, QWORD PTR [rbp+200]
  0002b	5f		 pop	 rdi
  0002c	5d		 pop	 rbp
  0002d	c3		 ret	 0
?__empty_global_delete@@YAXPEAX_K@Z ENDP		; __empty_global_delete
_TEXT	ENDS
; Function compile flags: /Odtp /RTCsu /ZI
; File E:\2 семестр\КПО\Лаба_3\calendar01\Laba_1\countOfDayUntilBirthday.cpp
;	COMDAT ?__empty_global_delete@@YAXPEAX@Z
_TEXT	SEGMENT
__formal$ = 224
?__empty_global_delete@@YAXPEAX@Z PROC			; __empty_global_delete, COMDAT

$LN3:
  00000	48 89 4c 24 08	 mov	 QWORD PTR [rsp+8], rcx
  00005	55		 push	 rbp
  00006	57		 push	 rdi
  00007	48 81 ec e8 00
	00 00		 sub	 rsp, 232		; 000000e8H
  0000e	48 8d 6c 24 20	 lea	 rbp, QWORD PTR [rsp+32]
  00013	48 8d 0d 00 00
	00 00		 lea	 rcx, OFFSET FLAT:__26869255_countOfDayUntilBirthday@cpp
  0001a	e8 00 00 00 00	 call	 __CheckForDebuggerJustMyCode
  0001f	48 8d a5 c8 00
	00 00		 lea	 rsp, QWORD PTR [rbp+200]
  00026	5f		 pop	 rdi
  00027	5d		 pop	 rbp
  00028	c3		 ret	 0
?__empty_global_delete@@YAXPEAX@Z ENDP			; __empty_global_delete
_TEXT	ENDS
END
