; Listing generated by Microsoft (R) Optimizing Compiler Version 19.39.33520.0 

include listing.inc

INCLUDELIB MSVCRTD
INCLUDELIB OLDNAMES

msvcjmc	SEGMENT
__C225F699_Laba_1@pch DB 01H
__4BFAE993_leapYear@cpp DB 01H
__656ECC1D_stdafx@h DB 01H
__1ED160C2_stdafx@cpp DB 01H
msvcjmc	ENDS
PUBLIC	?__empty_global_delete@@YAXPEAX@Z		; __empty_global_delete
PUBLIC	?__empty_global_delete@@YAXPEAX_K@Z		; __empty_global_delete
PUBLIC	?leapYear@@YAHH@Z				; leapYear
PUBLIC	__JustMyCode_Default
EXTRN	_RTC_InitBase:PROC
EXTRN	_RTC_Shutdown:PROC
EXTRN	__CheckForDebuggerJustMyCode:PROC
;	COMDAT pdata
pdata	SEGMENT
$pdata$?__empty_global_delete@@YAXPEAX@Z DD imagerel $LN3
	DD	imagerel $LN3+41
	DD	imagerel $unwind$?__empty_global_delete@@YAXPEAX@Z
pdata	ENDS
;	COMDAT pdata
pdata	SEGMENT
$pdata$?__empty_global_delete@@YAXPEAX_K@Z DD imagerel $LN3
	DD	imagerel $LN3+46
	DD	imagerel $unwind$?__empty_global_delete@@YAXPEAX_K@Z
pdata	ENDS
;	COMDAT pdata
pdata	SEGMENT
$pdata$?leapYear@@YAHH@Z DD imagerel $LN6
	DD	imagerel $LN6+129
	DD	imagerel $unwind$?leapYear@@YAHH@Z
pdata	ENDS
;	COMDAT rtc$TMZ
rtc$TMZ	SEGMENT
_RTC_Shutdown.rtc$TMZ DQ FLAT:_RTC_Shutdown
rtc$TMZ	ENDS
;	COMDAT rtc$IMZ
rtc$IMZ	SEGMENT
_RTC_InitBase.rtc$IMZ DQ FLAT:_RTC_InitBase
rtc$IMZ	ENDS
;	COMDAT xdata
xdata	SEGMENT
$unwind$?leapYear@@YAHH@Z DD 025051201H
	DD	010d2312H
	DD	07006001fH
	DD	05005H
xdata	ENDS
;	COMDAT xdata
xdata	SEGMENT
$unwind$?__empty_global_delete@@YAXPEAX_K@Z DD 025051801H
	DD	01132318H
	DD	0700c001dH
	DD	0500bH
xdata	ENDS
;	COMDAT xdata
xdata	SEGMENT
$unwind$?__empty_global_delete@@YAXPEAX@Z DD 025051301H
	DD	010e2313H
	DD	07007001dH
	DD	05006H
xdata	ENDS
; Function compile flags: /Odt
;	COMDAT __JustMyCode_Default
_TEXT	SEGMENT
__JustMyCode_Default PROC				; COMDAT
  00000	c2 00 00	 ret	 0
__JustMyCode_Default ENDP
_TEXT	ENDS
; Function compile flags: /Odtp /RTCsu /ZI
; File E:\2 семестр\КПО\Лаба_3\calendar01\Laba_1\leapYear.cpp
;	COMDAT ?leapYear@@YAHH@Z
_TEXT	SEGMENT
tv70 = 192
year$ = 240
?leapYear@@YAHH@Z PROC					; leapYear, COMDAT

; 4    : {

$LN6:
  00000	89 4c 24 08	 mov	 DWORD PTR [rsp+8], ecx
  00004	55		 push	 rbp
  00005	57		 push	 rdi
  00006	48 81 ec f8 00
	00 00		 sub	 rsp, 248		; 000000f8H
  0000d	48 8d 6c 24 20	 lea	 rbp, QWORD PTR [rsp+32]
  00012	48 8d 0d 00 00
	00 00		 lea	 rcx, OFFSET FLAT:__4BFAE993_leapYear@cpp
  00019	e8 00 00 00 00	 call	 __CheckForDebuggerJustMyCode

; 5    :     return (year % 4 == 0 && year % 100 != 0) || (year % 400 == 0);

  0001e	8b 85 f0 00 00
	00		 mov	 eax, DWORD PTR year$[rbp]
  00024	99		 cdq
  00025	83 e2 03	 and	 edx, 3
  00028	03 c2		 add	 eax, edx
  0002a	83 e0 03	 and	 eax, 3
  0002d	2b c2		 sub	 eax, edx
  0002f	85 c0		 test	 eax, eax
  00031	75 14		 jne	 SHORT $LN3@leapYear
  00033	8b 85 f0 00 00
	00		 mov	 eax, DWORD PTR year$[rbp]
  00039	99		 cdq
  0003a	b9 64 00 00 00	 mov	 ecx, 100		; 00000064H
  0003f	f7 f9		 idiv	 ecx
  00041	8b c2		 mov	 eax, edx
  00043	85 c0		 test	 eax, eax
  00045	75 20		 jne	 SHORT $LN4@leapYear
$LN3@leapYear:
  00047	8b 85 f0 00 00
	00		 mov	 eax, DWORD PTR year$[rbp]
  0004d	99		 cdq
  0004e	b9 90 01 00 00	 mov	 ecx, 400		; 00000190H
  00053	f7 f9		 idiv	 ecx
  00055	8b c2		 mov	 eax, edx
  00057	85 c0		 test	 eax, eax
  00059	74 0c		 je	 SHORT $LN4@leapYear
  0005b	c7 85 c0 00 00
	00 00 00 00 00	 mov	 DWORD PTR tv70[rbp], 0
  00065	eb 0a		 jmp	 SHORT $LN5@leapYear
$LN4@leapYear:
  00067	c7 85 c0 00 00
	00 01 00 00 00	 mov	 DWORD PTR tv70[rbp], 1
$LN5@leapYear:
  00071	8b 85 c0 00 00
	00		 mov	 eax, DWORD PTR tv70[rbp]

; 6    : }

  00077	48 8d a5 d8 00
	00 00		 lea	 rsp, QWORD PTR [rbp+216]
  0007e	5f		 pop	 rdi
  0007f	5d		 pop	 rbp
  00080	c3		 ret	 0
?leapYear@@YAHH@Z ENDP					; leapYear
_TEXT	ENDS
; Function compile flags: /Odtp /RTCsu /ZI
; File E:\2 семестр\КПО\Лаба_3\calendar01\Laba_1\leapYear.cpp
;	COMDAT ?__empty_global_delete@@YAXPEAX_K@Z
_TEXT	SEGMENT
__formal$ = 224
__formal$ = 232
?__empty_global_delete@@YAXPEAX_K@Z PROC		; __empty_global_delete, COMDAT

$LN3:
  00000	48 89 54 24 10	 mov	 QWORD PTR [rsp+16], rdx
  00005	48 89 4c 24 08	 mov	 QWORD PTR [rsp+8], rcx
  0000a	55		 push	 rbp
  0000b	57		 push	 rdi
  0000c	48 81 ec e8 00
	00 00		 sub	 rsp, 232		; 000000e8H
  00013	48 8d 6c 24 20	 lea	 rbp, QWORD PTR [rsp+32]
  00018	48 8d 0d 00 00
	00 00		 lea	 rcx, OFFSET FLAT:__4BFAE993_leapYear@cpp
  0001f	e8 00 00 00 00	 call	 __CheckForDebuggerJustMyCode
  00024	48 8d a5 c8 00
	00 00		 lea	 rsp, QWORD PTR [rbp+200]
  0002b	5f		 pop	 rdi
  0002c	5d		 pop	 rbp
  0002d	c3		 ret	 0
?__empty_global_delete@@YAXPEAX_K@Z ENDP		; __empty_global_delete
_TEXT	ENDS
; Function compile flags: /Odtp /RTCsu /ZI
; File E:\2 семестр\КПО\Лаба_3\calendar01\Laba_1\leapYear.cpp
;	COMDAT ?__empty_global_delete@@YAXPEAX@Z
_TEXT	SEGMENT
__formal$ = 224
?__empty_global_delete@@YAXPEAX@Z PROC			; __empty_global_delete, COMDAT

$LN3:
  00000	48 89 4c 24 08	 mov	 QWORD PTR [rsp+8], rcx
  00005	55		 push	 rbp
  00006	57		 push	 rdi
  00007	48 81 ec e8 00
	00 00		 sub	 rsp, 232		; 000000e8H
  0000e	48 8d 6c 24 20	 lea	 rbp, QWORD PTR [rsp+32]
  00013	48 8d 0d 00 00
	00 00		 lea	 rcx, OFFSET FLAT:__4BFAE993_leapYear@cpp
  0001a	e8 00 00 00 00	 call	 __CheckForDebuggerJustMyCode
  0001f	48 8d a5 c8 00
	00 00		 lea	 rsp, QWORD PTR [rbp+200]
  00026	5f		 pop	 rdi
  00027	5d		 pop	 rbp
  00028	c3		 ret	 0
?__empty_global_delete@@YAXPEAX@Z ENDP			; __empty_global_delete
_TEXT	ENDS
END
