; Listing generated by Microsoft (R) Optimizing Compiler Version 19.39.33520.0 

include listing.inc

INCLUDELIB MSVCRTD
INCLUDELIB OLDNAMES

PUBLIC	__@@_PchSym_@00@UCLKmyKryKmzKouKmzKonKmzKouKmyKryKmyKrxKmyKrzUKmzKopKmzKokKmzKolUKmzKooKmzKozKmzKoyKmzKozPDUxzovmwziABUozyzPBUcGEUwvyftUhgwzucOlyq@4B2008FD98C1DD4
;	COMDAT __@@_PchSym_@00@UCLKmyKryKmzKouKmzKonKmzKouKmyKryKmyKrxKmyKrzUKmzKopKmzKokKmzKolUKmzKooKmzKozKmzKoyKmzKozPDUxzovmwziABUozyzPBUcGEUwvyftUhgwzucOlyq@4B2008FD98C1DD4
_BSS	SEGMENT
__@@_PchSym_@00@UCLKmyKryKmzKouKmzKonKmzKouKmyKryKmyKrxKmyKrzUKmzKopKmzKokKmzKolUKmzKooKmzKozKmzKoyKmzKozPDUxzovmwziABUozyzPBUcGEUwvyftUhgwzucOlyq@4B2008FD98C1DD4 DD 01H DUP (?)
_BSS	ENDS
msvcjmc	SEGMENT
__FE09AF47_concurrencysal@h DB 01H
__C073CA79_sal@h DB 01H
__D6AFE870_vadefs@h DB 01H
__D63E96CF_vcruntime@h DB 01H
__32E3D3D2_xkeycheck@h DB 01H
__CFD6EDFA_yvals_core@h DB 01H
__10D4A829_limits@h DB 01H
__9CD02892_climits DB 01H
__1B0272D9_corecrt@h DB 01H
__A3D3E4E8_vcruntime_new@h DB 01H
__8D1A214D_vcruntime_new_debug@h DB 01H
__935DC21B_crtdbg@h DB 01H
__497BC13E_crtdefs@h DB 01H
__DDE8D0E0_use_ansi@h DB 01H
__AE7FBCDF_yvals@h DB 01H
__BB16330F_corecrt_math@h DB 01H
__3BF2A406_math@h DB 01H
__45DED006_corecrt_malloc@h DB 01H
__13F5961F_stddef@h DB 01H
__FD6DBD68_corecrt_search@h DB 01H
__E2E33A61_corecrt_wstdlib@h DB 01H
__6E5ACABA_stdlib@h DB 01H
__183F0A60_cstdlib DB 01H
__26E6E2A9_xtr1common DB 01H
__F5A7E1DF_intrin0@inl@h DB 01H
__50567835_intrin0@h DB 01H
__A2C9C4CE_cmath DB 01H
__44420885_corecrt_stdio_config@h DB 01H
__AB601D8D_corecrt_wstdio@h DB 01H
__C1EC35D3_stdio@h DB 01H
__1C5946C5_cstdio DB 01H
__61CC25A1_errno@h DB 01H
__3EADF068_vcruntime_string@h DB 01H
__E4C945B4_corecrt_memcpy_s@h DB 01H
__8EAFF484_corecrt_memory@h DB 01H
__6490AEC5_corecrt_wstring@h DB 01H
__E8295E1E_string@h DB 01H
__54ADA280_cstring DB 01H
__EF1F6BBA_corecrt_wconio@h DB 01H
__74484FB3_corecrt_wctype@h DB 01H
__3D1D430C_corecrt_wdirect@h DB 01H
__8ECB7138_corecrt_share@h DB 01H
__DB7FEBA6_corecrt_wio@h DB 01H
__9A9F0068_corecrt_wprocess@h DB 01H
__369A9BC3_corecrt_wtime@h DB 01H
__CE789B9D_types@h DB 01H
__9901C817_stat@h DB 01H
__3FCAD62E_wchar@h DB 01H
__86D29096_cwchar DB 01H
__C51215A0_iosfwd DB 01H
__BDF4D0CD_cstddef DB 01H
__E4CFD974_initializer_list DB 01H
__AEA28616_stdint@h DB 01H
__A561EB1D_cstdint DB 01H
__7C4A1519_type_traits DB 01H
__2F328FEB_utility DB 01H
__91F58E7E___msvc_iter_core@hpp DB 01H
__C27AFEEB_xutility DB 01H
__D3D649AB_iterator DB 01H
__F7972D0B_share@h DB 01H
__F338F6F9___msvc_system_error_abi@hpp DB 01H
__8178323E_cerrno DB 01H
__FA77ED4C_malloc@h DB 01H
__89766DA4_corecrt_terminate@h DB 01H
__EEF52EF9_eh@h DB 01H
__85F4241F_vcruntime_exception@h DB 01H
__8124AFA8_exception DB 01H
__BE6CFB00___msvc_sanitizer_annotate_container@hpp DB 01H
__B9985323_float@h DB 01H
__6F1D8D42_cfloat DB 01H
__09FBC026_limits DB 01H
__5003AD96_new DB 01H
__8B28237E_xatomic@h DB 01H
__45A7EC28_xmemory DB 01H
__31746AB4_xstring DB 01H
__086A95F5_stdexcept DB 01H
__8C4E33AA_xcall_once@h DB 01H
__06EAA9D0_xerrc@h DB 01H
__0A9237D2_time@h DB 01H
__647A58C6_ctime DB 01H
__74BE1DAA_xtimec@h DB 01H
__BCA6E753_xthreads@h DB 01H
__62CE9CE4_atomic DB 01H
__3313218A_system_error DB 01H
__851B68E1_vcruntime_typeinfo@h DB 01H
__B2A50DF2_typeinfo DB 01H
__B555CCA8_memory DB 01H
__99109BA7_xfacet DB 01H
__F99E20B2___msvc_xlocinfo_types@hpp DB 01H
__1EC467ED_ctype@h DB 01H
__1392A162_cctype DB 01H
__791C33B7_locale@h DB 01H
__8B93D6B1_clocale DB 01H
__AD2CEE3A_xlocinfo DB 01H
__EE4A1E85_xlocale DB 01H
__94C99929_xiosbase DB 01H
__0ACA2D49_streambuf DB 01H
__70CD7892_xlocnum DB 01H
__A8CE9780_ios DB 01H
__FD5AC441_ostream DB 01H
__9E8AF17B_istream DB 01H
__A00384F4_iostream DB 01H
__C1864A34_string DB 01H
__656ECC1D_stdafx@h DB 01H
__C225F699_Laba_1@pch DB 01H
__1ED160C2_stdafx@cpp DB 01H
msvcjmc	ENDS
PUBLIC	?__empty_global_delete@@YAXPEAX@Z		; __empty_global_delete
PUBLIC	?__empty_global_delete@@YAXPEAX_K@Z		; __empty_global_delete
PUBLIC	__JustMyCode_Default
EXTRN	_RTC_InitBase:PROC
EXTRN	_RTC_Shutdown:PROC
EXTRN	__CheckForDebuggerJustMyCode:PROC
;	COMDAT pdata
pdata	SEGMENT
$pdata$?__empty_global_delete@@YAXPEAX@Z DD imagerel $LN3
	DD	imagerel $LN3+41
	DD	imagerel $unwind$?__empty_global_delete@@YAXPEAX@Z
pdata	ENDS
;	COMDAT pdata
pdata	SEGMENT
$pdata$?__empty_global_delete@@YAXPEAX_K@Z DD imagerel $LN3
	DD	imagerel $LN3+46
	DD	imagerel $unwind$?__empty_global_delete@@YAXPEAX_K@Z
pdata	ENDS
;	COMDAT rtc$TMZ
rtc$TMZ	SEGMENT
_RTC_Shutdown.rtc$TMZ DQ FLAT:_RTC_Shutdown
rtc$TMZ	ENDS
;	COMDAT rtc$IMZ
rtc$IMZ	SEGMENT
_RTC_InitBase.rtc$IMZ DQ FLAT:_RTC_InitBase
rtc$IMZ	ENDS
;	COMDAT xdata
xdata	SEGMENT
$unwind$?__empty_global_delete@@YAXPEAX_K@Z DD 025051801H
	DD	01132318H
	DD	0700c001dH
	DD	0500bH
xdata	ENDS
;	COMDAT xdata
xdata	SEGMENT
$unwind$?__empty_global_delete@@YAXPEAX@Z DD 025051301H
	DD	010e2313H
	DD	07007001dH
	DD	05006H
xdata	ENDS
; Function compile flags: /Odt
;	COMDAT __JustMyCode_Default
_TEXT	SEGMENT
__JustMyCode_Default PROC				; COMDAT
  00000	c2 00 00	 ret	 0
__JustMyCode_Default ENDP
_TEXT	ENDS
; Function compile flags: /Odtp /RTCsu /ZI
; File E:\2 семестр\КПО\Лаба_3\calendar01\Laba_1\stdafx.cpp
;	COMDAT ?__empty_global_delete@@YAXPEAX_K@Z
_TEXT	SEGMENT
__formal$ = 224
__formal$ = 232
?__empty_global_delete@@YAXPEAX_K@Z PROC		; __empty_global_delete, COMDAT

$LN3:
  00000	48 89 54 24 10	 mov	 QWORD PTR [rsp+16], rdx
  00005	48 89 4c 24 08	 mov	 QWORD PTR [rsp+8], rcx
  0000a	55		 push	 rbp
  0000b	57		 push	 rdi
  0000c	48 81 ec e8 00
	00 00		 sub	 rsp, 232		; 000000e8H
  00013	48 8d 6c 24 20	 lea	 rbp, QWORD PTR [rsp+32]
  00018	48 8d 0d 00 00
	00 00		 lea	 rcx, OFFSET FLAT:__1ED160C2_stdafx@cpp
  0001f	e8 00 00 00 00	 call	 __CheckForDebuggerJustMyCode
  00024	48 8d a5 c8 00
	00 00		 lea	 rsp, QWORD PTR [rbp+200]
  0002b	5f		 pop	 rdi
  0002c	5d		 pop	 rbp
  0002d	c3		 ret	 0
?__empty_global_delete@@YAXPEAX_K@Z ENDP		; __empty_global_delete
_TEXT	ENDS
; Function compile flags: /Odtp /RTCsu /ZI
; File E:\2 семестр\КПО\Лаба_3\calendar01\Laba_1\stdafx.cpp
;	COMDAT ?__empty_global_delete@@YAXPEAX@Z
_TEXT	SEGMENT
__formal$ = 224
?__empty_global_delete@@YAXPEAX@Z PROC			; __empty_global_delete, COMDAT

$LN3:
  00000	48 89 4c 24 08	 mov	 QWORD PTR [rsp+8], rcx
  00005	55		 push	 rbp
  00006	57		 push	 rdi
  00007	48 81 ec e8 00
	00 00		 sub	 rsp, 232		; 000000e8H
  0000e	48 8d 6c 24 20	 lea	 rbp, QWORD PTR [rsp+32]
  00013	48 8d 0d 00 00
	00 00		 lea	 rcx, OFFSET FLAT:__1ED160C2_stdafx@cpp
  0001a	e8 00 00 00 00	 call	 __CheckForDebuggerJustMyCode
  0001f	48 8d a5 c8 00
	00 00		 lea	 rsp, QWORD PTR [rbp+200]
  00026	5f		 pop	 rdi
  00027	5d		 pop	 rbp
  00028	c3		 ret	 0
?__empty_global_delete@@YAXPEAX@Z ENDP			; __empty_global_delete
_TEXT	ENDS
END
